
fw_ddr1.elf:     file format elf32-tradlittlemips

Disassembly of section .text:

80000200 <_start>:
80000200:	4d53504c 	0x4d53504c
80000204:	3c1d8000 	lui	sp,0x8000
80000208:	37bd4000 	ori	sp,sp,0x4000
8000020c:	08000093 	j	8000024c <cmain>
80000210:	00000000 	nop
	...

80000220 <init_all>:
80000220:	27bdffe8 	addiu	sp,sp,-24
80000224:	afbf0014 	sw	ra,20(sp)
80000228:	0c00012d 	jal	800004b4 <init_uart>
8000022c:	00000000 	nop
80000230:	0c000196 	jal	80000658 <init_pll>
80000234:	00000000 	nop
80000238:	0c000337 	jal	80000cdc <act8600_setting>
8000023c:	00000000 	nop
80000240:	8fbf0014 	lw	ra,20(sp)
80000244:	08000368 	j	80000da0 <init_i2c>
80000248:	27bd0018 	addiu	sp,sp,24

8000024c <cmain>:
8000024c:	27bdffe8 	addiu	sp,sp,-24
80000250:	afbf0014 	sw	ra,20(sp)
80000254:	0c000088 	jal	80000220 <init_all>
80000258:	00000000 	nop
8000025c:	3c048000 	lui	a0,0x8000
80000260:	0c0000c0 	jal	80000300 <prints>
80000264:	24841030 	addiu	a0,a0,4144
80000268:	0c000179 	jal	800005e4 <delayms>
8000026c:	240401f4 	li	a0,500
80000270:	0800009a 	j	80000268 <cmain+0x1c>
80000274:	00000000 	nop
	...

80000280 <serial_tstc>:
80000280:	3c028000 	lui	v0,0x8000
80000284:	8c431160 	lw	v1,4448(v0)
80000288:	90620014 	lbu	v0,20(v1)
8000028c:	03e00008 	jr	ra
80000290:	30420001 	andi	v0,v0,0x1

80000294 <serial_putc>:
80000294:	27bdffe0 	addiu	sp,sp,-32
80000298:	3c028000 	lui	v0,0x8000
8000029c:	afb20018 	sw	s2,24(sp)
800002a0:	8c521160 	lw	s2,4448(v0)
800002a4:	afb10014 	sw	s1,20(sp)
800002a8:	2402000a 	li	v0,10
800002ac:	309100ff 	andi	s1,a0,0xff
800002b0:	afb00010 	sw	s0,16(sp)
800002b4:	afbf001c 	sw	ra,28(sp)
800002b8:	1222000d 	beq	s1,v0,800002f0 <serial_putc+0x5c>
800002bc:	26500014 	addiu	s0,s2,20
800002c0:	24030060 	li	v1,96
800002c4:	92020000 	lbu	v0,0(s0)
800002c8:	30420060 	andi	v0,v0,0x60
800002cc:	1443fffd 	bne	v0,v1,800002c4 <serial_putc+0x30>
800002d0:	00000000 	nop
800002d4:	a2510000 	sb	s1,0(s2)
800002d8:	8fbf001c 	lw	ra,28(sp)
800002dc:	8fb20018 	lw	s2,24(sp)
800002e0:	8fb10014 	lw	s1,20(sp)
800002e4:	8fb00010 	lw	s0,16(sp)
800002e8:	03e00008 	jr	ra
800002ec:	27bd0020 	addiu	sp,sp,32
800002f0:	0c0000a5 	jal	80000294 <serial_putc>
800002f4:	2404000d 	li	a0,13
800002f8:	080000b1 	j	800002c4 <serial_putc+0x30>
800002fc:	24030060 	li	v1,96

80000300 <prints>:
80000300:	27bdffe8 	addiu	sp,sp,-24
80000304:	afb00010 	sw	s0,16(sp)
80000308:	afbf0014 	sw	ra,20(sp)
8000030c:	14800005 	bnez	a0,80000324 <prints+0x24>
80000310:	00808021 	move	s0,a0
80000314:	080000cc 	j	80000330 <prints+0x30>
80000318:	8fbf0014 	lw	ra,20(sp)
8000031c:	0c0000a5 	jal	80000294 <serial_putc>
80000320:	26100001 	addiu	s0,s0,1
80000324:	92040000 	lbu	a0,0(s0)
80000328:	1480fffc 	bnez	a0,8000031c <prints+0x1c>
8000032c:	8fbf0014 	lw	ra,20(sp)
80000330:	8fb00010 	lw	s0,16(sp)
80000334:	03e00008 	jr	ra
80000338:	27bd0018 	addiu	sp,sp,24

8000033c <sendhex16>:
8000033c:	27bdffe0 	addiu	sp,sp,-32
80000340:	afb00014 	sw	s0,20(sp)
80000344:	00041302 	srl	v0,a0,0xc
80000348:	3c108000 	lui	s0,0x8000
8000034c:	26101050 	addiu	s0,s0,4176
80000350:	3042000f 	andi	v0,v0,0xf
80000354:	afbf001c 	sw	ra,28(sp)
80000358:	afb10018 	sw	s1,24(sp)
8000035c:	02021021 	addu	v0,s0,v0
80000360:	00808821 	move	s1,a0
80000364:	0c0000a5 	jal	80000294 <serial_putc>
80000368:	90440000 	lbu	a0,0(v0)
8000036c:	00111202 	srl	v0,s1,0x8
80000370:	3042000f 	andi	v0,v0,0xf
80000374:	02021021 	addu	v0,s0,v0
80000378:	0c0000a5 	jal	80000294 <serial_putc>
8000037c:	90440000 	lbu	a0,0(v0)
80000380:	00111102 	srl	v0,s1,0x4
80000384:	3042000f 	andi	v0,v0,0xf
80000388:	02021021 	addu	v0,s0,v0
8000038c:	90440000 	lbu	a0,0(v0)
80000390:	3231000f 	andi	s1,s1,0xf
80000394:	0c0000a5 	jal	80000294 <serial_putc>
80000398:	02118021 	addu	s0,s0,s1
8000039c:	0c0000a5 	jal	80000294 <serial_putc>
800003a0:	92040000 	lbu	a0,0(s0)
800003a4:	8fbf001c 	lw	ra,28(sp)
800003a8:	8fb10018 	lw	s1,24(sp)
800003ac:	8fb00014 	lw	s0,20(sp)
800003b0:	24040020 	li	a0,32
800003b4:	080000a5 	j	80000294 <serial_putc>
800003b8:	27bd0020 	addiu	sp,sp,32

800003bc <sendhex32>:
800003bc:	27bdffe0 	addiu	sp,sp,-32
800003c0:	afb10018 	sw	s1,24(sp)
800003c4:	afb00014 	sw	s0,20(sp)
800003c8:	00a08821 	move	s1,a1
800003cc:	3c108000 	lui	s0,0x8000
800003d0:	afbf001c 	sw	ra,28(sp)
800003d4:	0c0000c0 	jal	80000300 <prints>
800003d8:	26101050 	addiu	s0,s0,4176
800003dc:	00111702 	srl	v0,s1,0x1c
800003e0:	02021021 	addu	v0,s0,v0
800003e4:	0c0000a5 	jal	80000294 <serial_putc>
800003e8:	90440000 	lbu	a0,0(v0)
800003ec:	00111602 	srl	v0,s1,0x18
800003f0:	3042000f 	andi	v0,v0,0xf
800003f4:	02021021 	addu	v0,s0,v0
800003f8:	0c0000a5 	jal	80000294 <serial_putc>
800003fc:	90440000 	lbu	a0,0(v0)
80000400:	00111502 	srl	v0,s1,0x14
80000404:	3042000f 	andi	v0,v0,0xf
80000408:	02021021 	addu	v0,s0,v0
8000040c:	0c0000a5 	jal	80000294 <serial_putc>
80000410:	90440000 	lbu	a0,0(v0)
80000414:	00111402 	srl	v0,s1,0x10
80000418:	3042000f 	andi	v0,v0,0xf
8000041c:	02021021 	addu	v0,s0,v0
80000420:	0c0000a5 	jal	80000294 <serial_putc>
80000424:	90440000 	lbu	a0,0(v0)
80000428:	00111302 	srl	v0,s1,0xc
8000042c:	3042000f 	andi	v0,v0,0xf
80000430:	02021021 	addu	v0,s0,v0
80000434:	0c0000a5 	jal	80000294 <serial_putc>
80000438:	90440000 	lbu	a0,0(v0)
8000043c:	00111202 	srl	v0,s1,0x8
80000440:	3042000f 	andi	v0,v0,0xf
80000444:	02021021 	addu	v0,s0,v0
80000448:	0c0000a5 	jal	80000294 <serial_putc>
8000044c:	90440000 	lbu	a0,0(v0)
80000450:	00111102 	srl	v0,s1,0x4
80000454:	3042000f 	andi	v0,v0,0xf
80000458:	02021021 	addu	v0,s0,v0
8000045c:	90440000 	lbu	a0,0(v0)
80000460:	3231000f 	andi	s1,s1,0xf
80000464:	0c0000a5 	jal	80000294 <serial_putc>
80000468:	02118021 	addu	s0,s0,s1
8000046c:	0c0000a5 	jal	80000294 <serial_putc>
80000470:	92040000 	lbu	a0,0(s0)
80000474:	8fbf001c 	lw	ra,28(sp)
80000478:	8fb10018 	lw	s1,24(sp)
8000047c:	8fb00014 	lw	s0,20(sp)
80000480:	24040020 	li	a0,32
80000484:	080000a5 	j	80000294 <serial_putc>
80000488:	27bd0020 	addiu	sp,sp,32

8000048c <uart_getc>:
8000048c:	3c028000 	lui	v0,0x8000
80000490:	8c441160 	lw	a0,4448(v0)
80000494:	24830014 	addiu	v1,a0,20
80000498:	90620000 	lbu	v0,0(v1)
8000049c:	30420001 	andi	v0,v0,0x1
800004a0:	1040fffd 	beqz	v0,80000498 <uart_getc+0xc>
800004a4:	00000000 	nop
800004a8:	90820000 	lbu	v0,0(a0)
800004ac:	03e00008 	jr	ra
800004b0:	304200ff 	andi	v0,v0,0xff

800004b4 <init_uart>:
800004b4:	3c02b001 	lui	v0,0xb001
800004b8:	3c035000 	lui	v1,0x5000
800004bc:	34440218 	ori	a0,v0,0x218
800004c0:	ac830000 	sw	v1,0(a0)
800004c4:	34460248 	ori	a2,v0,0x248
800004c8:	34450228 	ori	a1,v0,0x228
800004cc:	3c04b000 	lui	a0,0xb000
800004d0:	34420238 	ori	v0,v0,0x238
800004d4:	aca30000 	sw	v1,0(a1)
800004d8:	34840020 	ori	a0,a0,0x20
800004dc:	ac430000 	sw	v1,0(v0)
800004e0:	acc30000 	sw	v1,0(a2)
800004e4:	8c830000 	lw	v1,0(a0)
800004e8:	3c068000 	lui	a2,0x8000
800004ec:	3c02fffd 	lui	v0,0xfffd
800004f0:	8cc71160 	lw	a3,4448(a2)
800004f4:	3442ffff 	ori	v0,v0,0xffff
800004f8:	00621824 	and	v1,v1,v0
800004fc:	2402ffef 	li	v0,-17
80000500:	ac830000 	sw	v1,0(a0)
80000504:	a0e00004 	sb	zero,4(a3)
80000508:	2403fffc 	li	v1,-4
8000050c:	a0e20008 	sb	v0,8(a3)
80000510:	24020003 	li	v0,3
80000514:	a0e30020 	sb	v1,32(a3)
80000518:	a0e2000c 	sb	v0,12(a3)
8000051c:	3c028000 	lui	v0,0x8000
80000520:	8c441164 	lw	a0,4452(v0)
80000524:	3c0291a2 	lui	v0,0x91a2
80000528:	8cc51160 	lw	a1,4448(a2)
8000052c:	3442b3c5 	ori	v0,v0,0xb3c5
80000530:	00820019 	multu	a0,v0
80000534:	90a3000c 	lbu	v1,12(a1)
80000538:	00002010 	mfhi	a0
8000053c:	306300ff 	andi	v1,v1,0xff
80000540:	34630080 	ori	v1,v1,0x80
80000544:	000414c2 	srl	v0,a0,0x13
80000548:	304200ff 	andi	v0,v0,0xff
8000054c:	3066007f 	andi	a2,v1,0x7f
80000550:	000426c2 	srl	a0,a0,0x1b
80000554:	306300ff 	andi	v1,v1,0xff
80000558:	a0a3000c 	sb	v1,12(a1)
8000055c:	a0a40004 	sb	a0,4(a1)
80000560:	a0a20000 	sb	v0,0(a1)
80000564:	24020017 	li	v0,23
80000568:	a0a6000c 	sb	a2,12(a1)
8000056c:	a0e20008 	sb	v0,8(a3)
80000570:	03e00008 	jr	ra
80000574:	00000000 	nop
	...

80000580 <delayus>:
80000580:	27bdfff8 	addiu	sp,sp,-8
80000584:	afa40008 	sw	a0,8(sp)
80000588:	8fa20008 	lw	v0,8(sp)
8000058c:	10400013 	beqz	v0,800005dc <delayus+0x5c>
80000590:	00000000 	nop
80000594:	afa00000 	sw	zero,0(sp)
80000598:	8fa20000 	lw	v0,0(sp)
8000059c:	2c42004b 	sltiu	v0,v0,75
800005a0:	10400008 	beqz	v0,800005c4 <delayus+0x44>
800005a4:	00000000 	nop
800005a8:	8fa20000 	lw	v0,0(sp)
800005ac:	24420001 	addiu	v0,v0,1
800005b0:	afa20000 	sw	v0,0(sp)
800005b4:	8fa30000 	lw	v1,0(sp)
800005b8:	2c63004b 	sltiu	v1,v1,75
800005bc:	1460fffa 	bnez	v1,800005a8 <delayus+0x28>
800005c0:	00000000 	nop
800005c4:	8fa20008 	lw	v0,8(sp)
800005c8:	2442ffff 	addiu	v0,v0,-1
800005cc:	afa20008 	sw	v0,8(sp)
800005d0:	8fa30008 	lw	v1,8(sp)
800005d4:	1460ffef 	bnez	v1,80000594 <delayus+0x14>
800005d8:	00000000 	nop
800005dc:	03e00008 	jr	ra
800005e0:	27bd0008 	addiu	sp,sp,8

800005e4 <delayms>:
800005e4:	27bdfff8 	addiu	sp,sp,-8
800005e8:	afa40008 	sw	a0,8(sp)
800005ec:	8fa20008 	lw	v0,8(sp)
800005f0:	10400017 	beqz	v0,80000650 <delayms+0x6c>
800005f4:	00000000 	nop
800005f8:	240403e8 	li	a0,1000
800005fc:	afa00000 	sw	zero,0(sp)
80000600:	8fa20000 	lw	v0,0(sp)
80000604:	2c42004b 	sltiu	v0,v0,75
80000608:	10400008 	beqz	v0,8000062c <delayms+0x48>
8000060c:	00000000 	nop
80000610:	8fa20000 	lw	v0,0(sp)
80000614:	24420001 	addiu	v0,v0,1
80000618:	afa20000 	sw	v0,0(sp)
8000061c:	8fa30000 	lw	v1,0(sp)
80000620:	2c63004b 	sltiu	v1,v1,75
80000624:	1460fffa 	bnez	v1,80000610 <delayms+0x2c>
80000628:	00000000 	nop
8000062c:	2484ffff 	addiu	a0,a0,-1
80000630:	1480fff2 	bnez	a0,800005fc <delayms+0x18>
80000634:	00000000 	nop
80000638:	8fa20008 	lw	v0,8(sp)
8000063c:	2442ffff 	addiu	v0,v0,-1
80000640:	afa20008 	sw	v0,8(sp)
80000644:	8fa30008 	lw	v1,8(sp)
80000648:	1460ffeb 	bnez	v1,800005f8 <delayms+0x14>
8000064c:	00000000 	nop
80000650:	03e00008 	jr	ra
80000654:	27bd0008 	addiu	sp,sp,8

80000658 <init_pll>:
80000658:	3c048000 	lui	a0,0x8000
8000065c:	27bdffd8 	addiu	sp,sp,-40
80000660:	24841060 	addiu	a0,a0,4192
80000664:	afbf0024 	sw	ra,36(sp)
80000668:	afb10020 	sw	s1,32(sp)
8000066c:	0c0000c0 	jal	80000300 <prints>
80000670:	afb0001c 	sw	s0,28(sp)
80000674:	3c024343 	lui	v0,0x4343
80000678:	3c04b000 	lui	a0,0xb000
8000067c:	34421530 	ori	v0,v0,0x1530
80000680:	ac820000 	sw	v0,0(a0)
80000684:	3c03d200 	lui	v1,0xd200
80000688:	3c022300 	lui	v0,0x2300
8000068c:	34860030 	ori	a2,a0,0x30
80000690:	34850010 	ori	a1,a0,0x10
80000694:	34638120 	ori	v1,v1,0x8120
80000698:	34420085 	ori	v0,v0,0x85
8000069c:	aca30000 	sw	v1,0(a1)
800006a0:	24040064 	li	a0,100
800006a4:	acc20000 	sw	v0,0(a2)
800006a8:	afa00010 	sw	zero,16(sp)
800006ac:	8fa20010 	lw	v0,16(sp)
800006b0:	2c42004b 	sltiu	v0,v0,75
800006b4:	10400008 	beqz	v0,800006d8 <init_pll+0x80>
800006b8:	00000000 	nop
800006bc:	8fa20010 	lw	v0,16(sp)
800006c0:	24420001 	addiu	v0,v0,1
800006c4:	afa20010 	sw	v0,16(sp)
800006c8:	8fa30010 	lw	v1,16(sp)
800006cc:	2c63004b 	sltiu	v1,v1,75
800006d0:	1460fffa 	bnez	v1,800006bc <init_pll+0x64>
800006d4:	00000000 	nop
800006d8:	2484ffff 	addiu	a0,a0,-1
800006dc:	1480fff2 	bnez	a0,800006a8 <init_pll+0x50>
800006e0:	3c02b000 	lui	v0,0xb000
800006e4:	34440014 	ori	a0,v0,0x14
800006e8:	3c033c00 	lui	v1,0x3c00
800006ec:	8c820000 	lw	v0,0(a0)
800006f0:	00431024 	and	v0,v0,v1
800006f4:	1040fffd 	beqz	v0,800006ec <init_pll+0x94>
800006f8:	3c10b000 	lui	s0,0xb000
800006fc:	8e050000 	lw	a1,0(s0)
80000700:	3c048000 	lui	a0,0x8000
80000704:	0c0000ef 	jal	800003bc <sendhex32>
80000708:	24841078 	addiu	a0,a0,4216
8000070c:	36020010 	ori	v0,s0,0x10
80000710:	8c450000 	lw	a1,0(v0)
80000714:	3c048000 	lui	a0,0x8000
80000718:	0c0000ef 	jal	800003bc <sendhex32>
8000071c:	24841084 	addiu	a0,a0,4228
80000720:	36020030 	ori	v0,s0,0x30
80000724:	8c450000 	lw	a1,0(v0)
80000728:	3c048000 	lui	a0,0x8000
8000072c:	0c0000ef 	jal	800003bc <sendhex32>
80000730:	2484108c 	addiu	a0,a0,4236
80000734:	3c022e5d 	lui	v0,0x2e5d
80000738:	36040020 	ori	a0,s0,0x20
8000073c:	3442a680 	ori	v0,v0,0xa680
80000740:	ac820000 	sw	v0,0(a0)
80000744:	3c021000 	lui	v0,0x1000
80000748:	36110024 	ori	s1,s0,0x24
8000074c:	24036dff 	li	v1,28159
80000750:	36100028 	ori	s0,s0,0x28
80000754:	344215c4 	ori	v0,v0,0x15c4
80000758:	ae030000 	sw	v1,0(s0)
8000075c:	ae220000 	sw	v0,0(s1)
80000760:	8c850000 	lw	a1,0(a0)
80000764:	3c048000 	lui	a0,0x8000
80000768:	0c0000ef 	jal	800003bc <sendhex32>
8000076c:	24841098 	addiu	a0,a0,4248
80000770:	8e050000 	lw	a1,0(s0)
80000774:	3c048000 	lui	a0,0x8000
80000778:	0c0000ef 	jal	800003bc <sendhex32>
8000077c:	248410a4 	addiu	a0,a0,4260
80000780:	8e250000 	lw	a1,0(s1)
80000784:	3c048000 	lui	a0,0x8000
80000788:	8fbf0024 	lw	ra,36(sp)
8000078c:	8fb10020 	lw	s1,32(sp)
80000790:	8fb0001c 	lw	s0,28(sp)
80000794:	248410b0 	addiu	a0,a0,4272
80000798:	080000ef 	j	800003bc <sendhex32>
8000079c:	27bd0028 	addiu	sp,sp,40

800007a0 <act8600_byte_w>:
800007a0:	27bdffc8 	addiu	sp,sp,-56
800007a4:	3c02b001 	lui	v0,0xb001
800007a8:	afbe0030 	sw	s8,48(sp)
800007ac:	afb7002c 	sw	s7,44(sp)
800007b0:	afb40020 	sw	s4,32(sp)
800007b4:	afb3001c 	sw	s3,28(sp)
800007b8:	afb20018 	sw	s2,24(sp)
800007bc:	afb10014 	sw	s1,20(sp)
800007c0:	afb00010 	sw	s0,16(sp)
800007c4:	afbf0034 	sw	ra,52(sp)
800007c8:	afb60028 	sw	s6,40(sp)
800007cc:	afb50024 	sw	s5,36(sp)
800007d0:	309300ff 	andi	s3,a0,0xff
800007d4:	34520434 	ori	s2,v0,0x434
800007d8:	00008021 	move	s0,zero
800007dc:	34540438 	ori	s4,v0,0x438
800007e0:	3c1e4000 	lui	s8,0x4000
800007e4:	3c118000 	lui	s1,0x8000
800007e8:	08000206 	j	80000818 <act8600_byte_w+0x78>
800007ec:	24170008 	li	s7,8
800007f0:	ae5e0000 	sw	s8,0(s2)
800007f4:	0c000160 	jal	80000580 <delayus>
800007f8:	26100001 	addiu	s0,s0,1
800007fc:	24040064 	li	a0,100
80000800:	ae510000 	sw	s1,0(s2)
80000804:	0c000160 	jal	80000580 <delayus>
80000808:	3c15b001 	lui	s5,0xb001
8000080c:	ae910000 	sw	s1,0(s4)
80000810:	12170012 	beq	s0,s7,8000085c <act8600_byte_w+0xbc>
80000814:	3c168000 	lui	s6,0x8000
80000818:	0c000160 	jal	80000580 <delayus>
8000081c:	24040032 	li	a0,50
80000820:	24030080 	li	v1,128
80000824:	02031007 	srav	v0,v1,s0
80000828:	00531024 	and	v0,v0,s3
8000082c:	1440fff0 	bnez	v0,800007f0 <act8600_byte_w+0x50>
80000830:	24040032 	li	a0,50
80000834:	ae9e0000 	sw	s8,0(s4)
80000838:	0c000160 	jal	80000580 <delayus>
8000083c:	26100001 	addiu	s0,s0,1
80000840:	24040064 	li	a0,100
80000844:	ae510000 	sw	s1,0(s2)
80000848:	0c000160 	jal	80000580 <delayus>
8000084c:	3c15b001 	lui	s5,0xb001
80000850:	ae910000 	sw	s1,0(s4)
80000854:	1617fff0 	bne	s0,s7,80000818 <act8600_byte_w+0x78>
80000858:	3c168000 	lui	s6,0x8000
8000085c:	3c114000 	lui	s1,0x4000
80000860:	0c000160 	jal	80000580 <delayus>
80000864:	24040032 	li	a0,50
80000868:	ae510000 	sw	s1,0(s2)
8000086c:	0c000160 	jal	80000580 <delayus>
80000870:	24040032 	li	a0,50
80000874:	ae560000 	sw	s6,0(s2)
80000878:	0c000160 	jal	80000580 <delayus>
8000087c:	24040064 	li	a0,100
80000880:	36a30400 	ori	v1,s5,0x400
80000884:	8c620000 	lw	v0,0(v1)
80000888:	36a30438 	ori	v1,s5,0x438
8000088c:	00511024 	and	v0,v0,s1
80000890:	ac760000 	sw	s6,0(v1)
80000894:	2410ffff 	li	s0,-1
80000898:	24040064 	li	a0,100
8000089c:	0c000160 	jal	80000580 <delayus>
800008a0:	0002800a 	movz	s0,zero,v0
800008a4:	8fbf0034 	lw	ra,52(sp)
800008a8:	02001021 	move	v0,s0
800008ac:	8fbe0030 	lw	s8,48(sp)
800008b0:	8fb7002c 	lw	s7,44(sp)
800008b4:	8fb60028 	lw	s6,40(sp)
800008b8:	8fb50024 	lw	s5,36(sp)
800008bc:	8fb40020 	lw	s4,32(sp)
800008c0:	8fb3001c 	lw	s3,28(sp)
800008c4:	8fb20018 	lw	s2,24(sp)
800008c8:	8fb10014 	lw	s1,20(sp)
800008cc:	8fb00010 	lw	s0,16(sp)
800008d0:	03e00008 	jr	ra
800008d4:	27bd0038 	addiu	sp,sp,56

800008d8 <act8600_write_reg>:
800008d8:	27bdffd8 	addiu	sp,sp,-40
800008dc:	afb10018 	sw	s1,24(sp)
800008e0:	afb00014 	sw	s0,20(sp)
800008e4:	309100ff 	andi	s1,a0,0xff
800008e8:	3c10b001 	lui	s0,0xb001
800008ec:	240401f4 	li	a0,500
800008f0:	afbf0024 	sw	ra,36(sp)
800008f4:	afb30020 	sw	s3,32(sp)
800008f8:	afb2001c 	sw	s2,28(sp)
800008fc:	30b300ff 	andi	s3,a1,0xff
80000900:	0c000160 	jal	80000580 <delayus>
80000904:	36100438 	ori	s0,s0,0x438
80000908:	3c024000 	lui	v0,0x4000
8000090c:	240400c8 	li	a0,200
80000910:	ae020000 	sw	v0,0(s0)
80000914:	0c000160 	jal	80000580 <delayus>
80000918:	00000000 	nop
8000091c:	3c028000 	lui	v0,0x8000
80000920:	240400c8 	li	a0,200
80000924:	ae020000 	sw	v0,0(s0)
80000928:	0c000160 	jal	80000580 <delayus>
8000092c:	00000000 	nop
80000930:	0c0001e8 	jal	800007a0 <act8600_byte_w>
80000934:	240400b4 	li	a0,180
80000938:	14400007 	bnez	v0,80000958 <act8600_write_reg+0x80>
8000093c:	00409021 	move	s2,v0
80000940:	0c000160 	jal	80000580 <delayus>
80000944:	240400c8 	li	a0,200
80000948:	0c0001e8 	jal	800007a0 <act8600_byte_w>
8000094c:	02202021 	move	a0,s1
80000950:	1040001a 	beqz	v0,800009bc <act8600_write_reg+0xe4>
80000954:	00409021 	move	s2,v0
80000958:	3c048000 	lui	a0,0x8000
8000095c:	0c0000c0 	jal	80000300 <prints>
80000960:	248410b8 	addiu	a0,a0,4280
80000964:	3c10b001 	lui	s0,0xb001
80000968:	36020438 	ori	v0,s0,0x438
8000096c:	3c114000 	lui	s1,0x4000
80000970:	ac510000 	sw	s1,0(v0)
80000974:	0c000160 	jal	80000580 <delayus>
80000978:	240400c8 	li	a0,200
8000097c:	36100434 	ori	s0,s0,0x434
80000980:	3c028000 	lui	v0,0x8000
80000984:	ae020000 	sw	v0,0(s0)
80000988:	0c000160 	jal	80000580 <delayus>
8000098c:	240400c8 	li	a0,200
80000990:	ae110000 	sw	s1,0(s0)
80000994:	0c000160 	jal	80000580 <delayus>
80000998:	240400c8 	li	a0,200
8000099c:	8fbf0024 	lw	ra,36(sp)
800009a0:	02401021 	move	v0,s2
800009a4:	8fb30020 	lw	s3,32(sp)
800009a8:	8fb2001c 	lw	s2,28(sp)
800009ac:	8fb10018 	lw	s1,24(sp)
800009b0:	8fb00014 	lw	s0,20(sp)
800009b4:	03e00008 	jr	ra
800009b8:	27bd0028 	addiu	sp,sp,40
800009bc:	0c000160 	jal	80000580 <delayus>
800009c0:	240400c8 	li	a0,200
800009c4:	0c0001e8 	jal	800007a0 <act8600_byte_w>
800009c8:	02602021 	move	a0,s3
800009cc:	1440ffe2 	bnez	v0,80000958 <act8600_write_reg+0x80>
800009d0:	00409021 	move	s2,v0
800009d4:	0c000160 	jal	80000580 <delayus>
800009d8:	240400c8 	li	a0,200
800009dc:	0800025a 	j	80000968 <act8600_write_reg+0x90>
800009e0:	3c10b001 	lui	s0,0xb001

800009e4 <otg_power_off>:
800009e4:	240400b0 	li	a0,176
800009e8:	08000236 	j	800008d8 <act8600_write_reg>
800009ec:	00002821 	move	a1,zero

800009f0 <otg_power_on>:
800009f0:	240400b0 	li	a0,176
800009f4:	08000236 	j	800008d8 <act8600_write_reg>
800009f8:	24050080 	li	a1,128

800009fc <act8600_read_reg>:
800009fc:	27bdffc8 	addiu	sp,sp,-56
80000a00:	afb50024 	sw	s5,36(sp)
80000a04:	3c15b001 	lui	s5,0xb001
80000a08:	afb40020 	sw	s4,32(sp)
80000a0c:	afb10014 	sw	s1,20(sp)
80000a10:	afb00010 	sw	s0,16(sp)
80000a14:	36b40438 	ori	s4,s5,0x438
80000a18:	309100ff 	andi	s1,a0,0xff
80000a1c:	3c104000 	lui	s0,0x4000
80000a20:	240401f4 	li	a0,500
80000a24:	afbf0034 	sw	ra,52(sp)
80000a28:	afa5003c 	sw	a1,60(sp)
80000a2c:	afb3001c 	sw	s3,28(sp)
80000a30:	afb20018 	sw	s2,24(sp)
80000a34:	afbe0030 	sw	s8,48(sp)
80000a38:	afb7002c 	sw	s7,44(sp)
80000a3c:	afb60028 	sw	s6,40(sp)
80000a40:	0c000160 	jal	80000580 <delayus>
80000a44:	3c138000 	lui	s3,0x8000
80000a48:	240400c8 	li	a0,200
80000a4c:	ae900000 	sw	s0,0(s4)
80000a50:	0c000160 	jal	80000580 <delayus>
80000a54:	00000000 	nop
80000a58:	240400c8 	li	a0,200
80000a5c:	ae930000 	sw	s3,0(s4)
80000a60:	0c000160 	jal	80000580 <delayus>
80000a64:	00000000 	nop
80000a68:	0c0001e8 	jal	800007a0 <act8600_byte_w>
80000a6c:	240400b4 	li	a0,180
80000a70:	14400007 	bnez	v0,80000a90 <act8600_read_reg+0x94>
80000a74:	00409021 	move	s2,v0
80000a78:	0c000160 	jal	80000580 <delayus>
80000a7c:	240400c8 	li	a0,200
80000a80:	0c0001e8 	jal	800007a0 <act8600_byte_w>
80000a84:	02202021 	move	a0,s1
80000a88:	1040001f 	beqz	v0,80000b08 <act8600_read_reg+0x10c>
80000a8c:	00409021 	move	s2,v0
80000a90:	3c048000 	lui	a0,0x8000
80000a94:	0c0000c0 	jal	80000300 <prints>
80000a98:	248410b8 	addiu	a0,a0,4280
80000a9c:	3c10b001 	lui	s0,0xb001
80000aa0:	36020438 	ori	v0,s0,0x438
80000aa4:	3c114000 	lui	s1,0x4000
80000aa8:	ac510000 	sw	s1,0(v0)
80000aac:	0c000160 	jal	80000580 <delayus>
80000ab0:	240400c8 	li	a0,200
80000ab4:	36100434 	ori	s0,s0,0x434
80000ab8:	3c028000 	lui	v0,0x8000
80000abc:	ae020000 	sw	v0,0(s0)
80000ac0:	0c000160 	jal	80000580 <delayus>
80000ac4:	240400c8 	li	a0,200
80000ac8:	ae110000 	sw	s1,0(s0)
80000acc:	0c000160 	jal	80000580 <delayus>
80000ad0:	240400c8 	li	a0,200
80000ad4:	8fbf0034 	lw	ra,52(sp)
80000ad8:	02401021 	move	v0,s2
80000adc:	8fbe0030 	lw	s8,48(sp)
80000ae0:	8fb7002c 	lw	s7,44(sp)
80000ae4:	8fb60028 	lw	s6,40(sp)
80000ae8:	8fb50024 	lw	s5,36(sp)
80000aec:	8fb40020 	lw	s4,32(sp)
80000af0:	8fb3001c 	lw	s3,28(sp)
80000af4:	8fb20018 	lw	s2,24(sp)
80000af8:	8fb10014 	lw	s1,20(sp)
80000afc:	8fb00010 	lw	s0,16(sp)
80000b00:	03e00008 	jr	ra
80000b04:	27bd0038 	addiu	sp,sp,56
80000b08:	0c000160 	jal	80000580 <delayus>
80000b0c:	240400c8 	li	a0,200
80000b10:	36b10434 	ori	s1,s5,0x434
80000b14:	240400c8 	li	a0,200
80000b18:	ae900000 	sw	s0,0(s4)
80000b1c:	0c000160 	jal	80000580 <delayus>
80000b20:	00000000 	nop
80000b24:	240400c8 	li	a0,200
80000b28:	ae330000 	sw	s3,0(s1)
80000b2c:	0c000160 	jal	80000580 <delayus>
80000b30:	00000000 	nop
80000b34:	240400c8 	li	a0,200
80000b38:	ae300000 	sw	s0,0(s1)
80000b3c:	0c000160 	jal	80000580 <delayus>
80000b40:	00000000 	nop
80000b44:	0c000160 	jal	80000580 <delayus>
80000b48:	240401f4 	li	a0,500
80000b4c:	240400c8 	li	a0,200
80000b50:	ae900000 	sw	s0,0(s4)
80000b54:	0c000160 	jal	80000580 <delayus>
80000b58:	00000000 	nop
80000b5c:	240400c8 	li	a0,200
80000b60:	ae930000 	sw	s3,0(s4)
80000b64:	0c000160 	jal	80000580 <delayus>
80000b68:	00000000 	nop
80000b6c:	0c0001e8 	jal	800007a0 <act8600_byte_w>
80000b70:	240400b5 	li	a0,181
80000b74:	1440ffc6 	bnez	v0,80000a90 <act8600_read_reg+0x94>
80000b78:	00409021 	move	s2,v0
80000b7c:	0c000160 	jal	80000580 <delayus>
80000b80:	240400c8 	li	a0,200
80000b84:	00009821 	move	s3,zero
80000b88:	00008021 	move	s0,zero
80000b8c:	3c118000 	lui	s1,0x8000
80000b90:	3c1e4000 	lui	s8,0x4000
80000b94:	0280b821 	move	s7,s4
80000b98:	24160008 	li	s6,8
80000b9c:	0c000160 	jal	80000580 <delayus>
80000ba0:	24040064 	li	a0,100
80000ba4:	3c02b001 	lui	v0,0xb001
80000ba8:	34420434 	ori	v0,v0,0x434
80000bac:	ac510000 	sw	s1,0(v0)
80000bb0:	0c000160 	jal	80000580 <delayus>
80000bb4:	24040064 	li	a0,100
80000bb8:	3c03b001 	lui	v1,0xb001
80000bbc:	34630400 	ori	v1,v1,0x400
80000bc0:	8c620000 	lw	v0,0(v1)
80000bc4:	00131840 	sll	v1,s3,0x1
80000bc8:	307300ff 	andi	s3,v1,0xff
80000bcc:	005e1024 	and	v0,v0,s8
80000bd0:	26100001 	addiu	s0,s0,1
80000bd4:	3c158000 	lui	s5,0x8000
80000bd8:	10400002 	beqz	v0,80000be4 <act8600_read_reg+0x1e8>
80000bdc:	26630001 	addiu	v1,s3,1
80000be0:	307300ff 	andi	s3,v1,0xff
80000be4:	aef10000 	sw	s1,0(s7)
80000be8:	1616ffec 	bne	s0,s6,80000b9c <act8600_read_reg+0x1a0>
80000bec:	24040032 	li	a0,50
80000bf0:	3c114000 	lui	s1,0x4000
80000bf4:	0c000160 	jal	80000580 <delayus>
80000bf8:	3c10b001 	lui	s0,0xb001
80000bfc:	36100434 	ori	s0,s0,0x434
80000c00:	24040032 	li	a0,50
80000c04:	ae910000 	sw	s1,0(s4)
80000c08:	0c000160 	jal	80000580 <delayus>
80000c0c:	00000000 	nop
80000c10:	24040064 	li	a0,100
80000c14:	ae150000 	sw	s5,0(s0)
80000c18:	0c000160 	jal	80000580 <delayus>
80000c1c:	00000000 	nop
80000c20:	24040032 	li	a0,50
80000c24:	ae950000 	sw	s5,0(s4)
80000c28:	0c000160 	jal	80000580 <delayus>
80000c2c:	00000000 	nop
80000c30:	24040032 	li	a0,50
80000c34:	ae110000 	sw	s1,0(s0)
80000c38:	0c000160 	jal	80000580 <delayus>
80000c3c:	3c10b001 	lui	s0,0xb001
80000c40:	8fa2003c 	lw	v0,60(sp)
80000c44:	240400c8 	li	a0,200
80000c48:	0c000160 	jal	80000580 <delayus>
80000c4c:	a0530000 	sb	s3,0(v0)
80000c50:	080002a9 	j	80000aa4 <act8600_read_reg+0xa8>
80000c54:	36020438 	ori	v0,s0,0x438

80000c58 <lcd_power_config>:
80000c58:	27bdffe0 	addiu	sp,sp,-32
80000c5c:	14800017 	bnez	a0,80000cbc <lcd_power_config+0x64>
80000c60:	afbf001c 	sw	ra,28(sp)
80000c64:	24040060 	li	a0,96
80000c68:	0c000236 	jal	800008d8 <act8600_write_reg>
80000c6c:	00002821 	move	a1,zero
80000c70:	24040061 	li	a0,97
80000c74:	0c000236 	jal	800008d8 <act8600_write_reg>
80000c78:	00002821 	move	a1,zero
80000c7c:	27a50010 	addiu	a1,sp,16
80000c80:	0c00027f 	jal	800009fc <act8600_read_reg>
80000c84:	24040060 	li	a0,96
80000c88:	27a50011 	addiu	a1,sp,17
80000c8c:	0c00027f 	jal	800009fc <act8600_read_reg>
80000c90:	24040061 	li	a0,97
80000c94:	3c048000 	lui	a0,0x8000
80000c98:	0c0000c0 	jal	80000300 <prints>
80000c9c:	248410d4 	addiu	a0,a0,4308
80000ca0:	0c0000cf 	jal	8000033c <sendhex16>
80000ca4:	93a40010 	lbu	a0,16(sp)
80000ca8:	0c0000cf 	jal	8000033c <sendhex16>
80000cac:	93a40011 	lbu	a0,17(sp)
80000cb0:	8fbf001c 	lw	ra,28(sp)
80000cb4:	03e00008 	jr	ra
80000cb8:	27bd0020 	addiu	sp,sp,32
80000cbc:	24040060 	li	a0,96
80000cc0:	0c000236 	jal	800008d8 <act8600_write_reg>
80000cc4:	24050039 	li	a1,57
80000cc8:	24040061 	li	a0,97
80000ccc:	0c000236 	jal	800008d8 <act8600_write_reg>
80000cd0:	24050081 	li	a1,129
80000cd4:	08000320 	j	80000c80 <lcd_power_config+0x28>
80000cd8:	27a50010 	addiu	a1,sp,16

80000cdc <act8600_setting>:
80000cdc:	3c02b001 	lui	v0,0xb001
80000ce0:	3c038000 	lui	v1,0x8000
80000ce4:	34480448 	ori	t0,v0,0x448
80000ce8:	34460418 	ori	a2,v0,0x418
80000cec:	34470424 	ori	a3,v0,0x424
80000cf0:	3c054000 	lui	a1,0x4000
80000cf4:	34420434 	ori	v0,v0,0x434
80000cf8:	27bdffe0 	addiu	sp,sp,-32
80000cfc:	acc30000 	sw	v1,0(a2)
80000d00:	240401f4 	li	a0,500
80000d04:	ace30000 	sw	v1,0(a3)
80000d08:	ac430000 	sw	v1,0(v0)
80000d0c:	ad030000 	sw	v1,0(t0)
80000d10:	acc50000 	sw	a1,0(a2)
80000d14:	ace50000 	sw	a1,0(a3)
80000d18:	ac450000 	sw	a1,0(v0)
80000d1c:	ad050000 	sw	a1,0(t0)
80000d20:	afbf001c 	sw	ra,28(sp)
80000d24:	0c000160 	jal	80000580 <delayus>
80000d28:	afb00018 	sw	s0,24(sp)
80000d2c:	3c048000 	lui	a0,0x8000
80000d30:	27b00010 	addiu	s0,sp,16
80000d34:	0c0000c0 	jal	80000300 <prints>
80000d38:	248410ec 	addiu	a0,a0,4332
80000d3c:	02002821 	move	a1,s0
80000d40:	0c00027f 	jal	800009fc <act8600_read_reg>
80000d44:	24040040 	li	a0,64
80000d48:	0c0000cf 	jal	8000033c <sendhex16>
80000d4c:	93a40010 	lbu	a0,16(sp)
80000d50:	24040040 	li	a0,64
80000d54:	0c000236 	jal	800008d8 <act8600_write_reg>
80000d58:	24050057 	li	a1,87
80000d5c:	24040041 	li	a0,65
80000d60:	0c000236 	jal	800008d8 <act8600_write_reg>
80000d64:	24050080 	li	a1,128
80000d68:	02002821 	move	a1,s0
80000d6c:	0c00027f 	jal	800009fc <act8600_read_reg>
80000d70:	24040040 	li	a0,64
80000d74:	3c048000 	lui	a0,0x8000
80000d78:	0c0000c0 	jal	80000300 <prints>
80000d7c:	2484110c 	addiu	a0,a0,4364
80000d80:	0c0000cf 	jal	8000033c <sendhex16>
80000d84:	93a40010 	lbu	a0,16(sp)
80000d88:	0c000316 	jal	80000c58 <lcd_power_config>
80000d8c:	24040001 	li	a0,1
80000d90:	8fbf001c 	lw	ra,28(sp)
80000d94:	8fb00018 	lw	s0,24(sp)
80000d98:	03e00008 	jr	ra
80000d9c:	27bd0020 	addiu	sp,sp,32

80000da0 <init_i2c>:
80000da0:	27bdffd0 	addiu	sp,sp,-48
80000da4:	3c048000 	lui	a0,0x8000
80000da8:	afb10014 	sw	s1,20(sp)
80000dac:	2484112c 	addiu	a0,a0,4396
80000db0:	3c11b001 	lui	s1,0xb001
80000db4:	afbf002c 	sw	ra,44(sp)
80000db8:	afb60028 	sw	s6,40(sp)
80000dbc:	afb50024 	sw	s5,36(sp)
80000dc0:	afb40020 	sw	s4,32(sp)
80000dc4:	afb3001c 	sw	s3,28(sp)
80000dc8:	afb20018 	sw	s2,24(sp)
80000dcc:	0c0000c0 	jal	80000300 <prints>
80000dd0:	afb00010 	sw	s0,16(sp)
80000dd4:	3c03c000 	lui	v1,0xc000
80000dd8:	36260348 	ori	a2,s1,0x348
80000ddc:	36220318 	ori	v0,s1,0x318
80000de0:	36240328 	ori	a0,s1,0x328
80000de4:	36250338 	ori	a1,s1,0x338
80000de8:	ac430000 	sw	v1,0(v0)
80000dec:	ac830000 	sw	v1,0(a0)
80000df0:	36220310 	ori	v0,s1,0x310
80000df4:	aca30000 	sw	v1,0(a1)
80000df8:	acc30000 	sw	v1,0(a2)
80000dfc:	8c450000 	lw	a1,0(v0)
80000e00:	3c048000 	lui	a0,0x8000
80000e04:	0c0000ef 	jal	800003bc <sendhex32>
80000e08:	2484113c 	addiu	a0,a0,4412
80000e0c:	36220320 	ori	v0,s1,0x320
80000e10:	8c450000 	lw	a1,0(v0)
80000e14:	0c0000ef 	jal	800003bc <sendhex32>
80000e18:	00002021 	move	a0,zero
80000e1c:	36220330 	ori	v0,s1,0x330
80000e20:	8c450000 	lw	a1,0(v0)
80000e24:	00002021 	move	a0,zero
80000e28:	0c0000ef 	jal	800003bc <sendhex32>
80000e2c:	36310340 	ori	s1,s1,0x340
80000e30:	8e250000 	lw	a1,0(s1)
80000e34:	3c10b005 	lui	s0,0xb005
80000e38:	0c0000ef 	jal	800003bc <sendhex32>
80000e3c:	00002021 	move	a0,zero
80000e40:	241600e3 	li	s6,227
80000e44:	36050008 	ori	a1,s0,0x8
80000e48:	24020055 	li	v0,85
80000e4c:	ae160000 	sw	s6,0(s0)
80000e50:	36060014 	ori	a2,s0,0x14
80000e54:	aca20000 	sw	v0,0(a1)
80000e58:	36070018 	ori	a3,s0,0x18
80000e5c:	24030234 	li	v1,564
80000e60:	240202a0 	li	v0,672
80000e64:	acc30000 	sw	v1,0(a2)
80000e68:	3608001c 	ori	t0,s0,0x1c
80000e6c:	ace20000 	sw	v0,0(a3)
80000e70:	36090020 	ori	t1,s0,0x20
80000e74:	2403003c 	li	v1,60
80000e78:	24020082 	li	v0,130
80000e7c:	ad030000 	sw	v1,0(t0)
80000e80:	360a0030 	ori	t2,s0,0x30
80000e84:	ad220000 	sw	v0,0(t1)
80000e88:	360b0038 	ori	t3,s0,0x38
80000e8c:	2402000a 	li	v0,10
80000e90:	ad400000 	sw	zero,0(t2)
80000e94:	360c003c 	ori	t4,s0,0x3c
80000e98:	ad620000 	sw	v0,0(t3)
80000e9c:	360d0088 	ori	t5,s0,0x88
80000ea0:	360e008c 	ori	t6,s0,0x8c
80000ea4:	360f0090 	ori	t7,s0,0x90
80000ea8:	36110094 	ori	s1,s0,0x94
80000eac:	24020033 	li	v0,51
80000eb0:	ad800000 	sw	zero,0(t4)
80000eb4:	24150001 	li	s5,1
80000eb8:	ada00000 	sw	zero,0(t5)
80000ebc:	36120098 	ori	s2,s0,0x98
80000ec0:	adc00000 	sw	zero,0(t6)
80000ec4:	361300d0 	ori	s3,s0,0xd0
80000ec8:	ade00000 	sw	zero,0(t7)
80000ecc:	3614006c 	ori	s4,s0,0x6c
80000ed0:	ae220000 	sw	v0,0(s1)
80000ed4:	24020131 	li	v0,305
80000ed8:	ae550000 	sw	s5,0(s2)
80000edc:	2404000a 	li	a0,10
80000ee0:	ae620000 	sw	v0,0(s3)
80000ee4:	ae950000 	sw	s5,0(s4)
80000ee8:	0c000160 	jal	80000580 <delayus>
80000eec:	00000000 	nop
80000ef0:	36030004 	ori	v1,s0,0x4
80000ef4:	24020057 	li	v0,87
80000ef8:	ac620000 	sw	v0,0(v1)
80000efc:	ae160000 	sw	s6,0(s0)
80000f00:	36100070 	ori	s0,s0,0x70
80000f04:	8e020000 	lw	v0,0(s0)
80000f08:	30420002 	andi	v0,v0,0x2
80000f0c:	1040fffd 	beqz	v0,80000f04 <init_i2c+0x164>
80000f10:	3c06b005 	lui	a2,0xb005
80000f14:	34c40010 	ori	a0,a2,0x10
80000f18:	24020010 	li	v0,16
80000f1c:	ac820000 	sw	v0,0(a0)
80000f20:	34c50004 	ori	a1,a2,0x4
80000f24:	24030057 	li	v1,87
80000f28:	240200e3 	li	v0,227
80000f2c:	aca30000 	sw	v1,0(a1)
80000f30:	34c40070 	ori	a0,a2,0x70
80000f34:	acc20000 	sw	v0,0(a2)
80000f38:	8c820000 	lw	v0,0(a0)
80000f3c:	30420002 	andi	v0,v0,0x2
80000f40:	1040fffd 	beqz	v0,80000f38 <init_i2c+0x198>
80000f44:	3c05b005 	lui	a1,0xb005
80000f48:	34a30010 	ori	v1,a1,0x10
80000f4c:	24020001 	li	v0,1
80000f50:	ac620000 	sw	v0,0(v1)
80000f54:	34a30070 	ori	v1,a1,0x70
80000f58:	8c620000 	lw	v0,0(v1)
80000f5c:	30420002 	andi	v0,v0,0x2
80000f60:	1040fffd 	beqz	v0,80000f58 <init_i2c+0x1b8>
80000f64:	3c04b005 	lui	a0,0xb005
80000f68:	34830010 	ori	v1,a0,0x10
80000f6c:	24020002 	li	v0,2
80000f70:	ac620000 	sw	v0,0(v1)
80000f74:	34830070 	ori	v1,a0,0x70
80000f78:	8c620000 	lw	v0,0(v1)
80000f7c:	30420002 	andi	v0,v0,0x2
80000f80:	1040fffd 	beqz	v0,80000f78 <init_i2c+0x1d8>
80000f84:	3c04b005 	lui	a0,0xb005
80000f88:	34830010 	ori	v1,a0,0x10
80000f8c:	24020003 	li	v0,3
80000f90:	ac620000 	sw	v0,0(v1)
80000f94:	34830070 	ori	v1,a0,0x70
80000f98:	8c620000 	lw	v0,0(v1)
80000f9c:	30420002 	andi	v0,v0,0x2
80000fa0:	1040fffd 	beqz	v0,80000f98 <init_i2c+0x1f8>
80000fa4:	3c04b005 	lui	a0,0xb005
80000fa8:	34830010 	ori	v1,a0,0x10
80000fac:	24020004 	li	v0,4
80000fb0:	ac620000 	sw	v0,0(v1)
80000fb4:	34830070 	ori	v1,a0,0x70
80000fb8:	8c620000 	lw	v0,0(v1)
80000fbc:	30420002 	andi	v0,v0,0x2
80000fc0:	1040fffd 	beqz	v0,80000fb8 <init_i2c+0x218>
80000fc4:	3c10b005 	lui	s0,0xb005
80000fc8:	36040010 	ori	a0,s0,0x10
80000fcc:	24020005 	li	v0,5
80000fd0:	24030063 	li	v1,99
80000fd4:	ac820000 	sw	v0,0(a0)
80000fd8:	ae030000 	sw	v1,0(s0)
80000fdc:	8e050000 	lw	a1,0(s0)
80000fe0:	3c048000 	lui	a0,0x8000
80000fe4:	0c0000ef 	jal	800003bc <sendhex32>
80000fe8:	24841140 	addiu	a0,a0,4416
80000fec:	36020080 	ori	v0,s0,0x80
80000ff0:	3c048000 	lui	a0,0x8000
80000ff4:	8c450000 	lw	a1,0(v0)
80000ff8:	8fbf002c 	lw	ra,44(sp)
80000ffc:	8fb60028 	lw	s6,40(sp)
80001000:	8fb50024 	lw	s5,36(sp)
80001004:	8fb40020 	lw	s4,32(sp)
80001008:	8fb3001c 	lw	s3,28(sp)
8000100c:	8fb20018 	lw	s2,24(sp)
80001010:	8fb10014 	lw	s1,20(sp)
80001014:	8fb00010 	lw	s0,16(sp)
80001018:	2484114c 	addiu	a0,a0,4428
8000101c:	080000ef 	j	800003bc <sendhex32>
80001020:	27bd0030 	addiu	sp,sp,48
	...
Disassembly of section .rodata:

80001030 <HexTable-0x20>:
80001030:	75634d0a 	jalx	858d3428 <_gp+0x58d22a0>
80001034:	7953203a 	0x7953203a
80001038:	6d657473 	0x6d657473
8000103c:	696e6920 	0x696e6920
80001040:	4b4f2074 	c2	0x14f2074
80001044:	00000021 	move	zero,zero
	...

80001050 <HexTable>:
80001050:	33323130 	andi	s2,t9,0x3130
80001054:	37363534 	ori	s6,t9,0x3534
80001058:	42413938 	c0	0x413938
8000105c:	46454443 	c1	0x454443
80001060:	634d0a0a 	0x634d0a0a
80001064:	69203a75 	0x69203a75
80001068:	2074696e 	addi	s4,v1,26990
8000106c:	306c6c70 	andi	t4,v1,0x6c70
80001070:	70202620 	0x70202620
80001074:	00316c6c 	0x316c6c
80001078:	5043720a 	beql	v0,v1,8001d8a4 <_gp+0x1c71c>
8000107c:	20524343 	addi	s2,v0,17219
80001080:	00000000 	nop
80001084:	5043720a 	beql	v0,v1,8001d8b0 <_gp+0x1c728>
80001088:	00205250 	0x205250
8000108c:	5043720a 	beql	v0,v1,8001d8b8 <_gp+0x1c730>
80001090:	31524350 	andi	s2,t2,0x4350
80001094:	00000020 	add	zero,zero,zero
80001098:	4c43720a 	0x4c43720a
8000109c:	2052474b 	addi	s2,v0,18251
800010a0:	00000000 	nop
800010a4:	4c43720a 	0x4c43720a
800010a8:	3152474b 	andi	s2,t2,0x474b
800010ac:	00000020 	add	zero,zero,zero
800010b0:	504f720a 	beql	v0,t7,8001d8dc <_gp+0x1c754>
800010b4:	00205243 	0x205243
800010b8:	3a525245 	xori	s2,s2,0x5245
800010bc:	74636120 	jalx	818d8480 <_gp+0x18d72f8>
800010c0:	30303638 	andi	s0,at,0x3638
800010c4:	6e616820 	0x6e616820
800010c8:	61687364 	0x61687364
800010cc:	6520656b 	0x6520656b
800010d0:	000a7272 	tlt	zero,t2,0x1c9
800010d4:	7463610a 	jalx	818d8428 <_gp+0x18d72a0>
800010d8:	30303638 	andi	s0,at,0x3638
800010dc:	36783020 	ori	t8,s3,0x3020
800010e0:	20262030 	addi	a2,at,8240
800010e4:	31367830 	andi	s6,t1,0x7830
800010e8:	0000203a 	0x203a
800010ec:	7463610a 	jalx	818d8428 <_gp+0x18d72a0>
800010f0:	30303638 	andi	s0,at,0x3638
800010f4:	73657420 	0x73657420
800010f8:	720a3a74 	0x720a3a74
800010fc:	20646165 	addi	a0,v1,24933
80001100:	20676572 	addi	a3,v1,25970
80001104:	30347830 	andi	s4,at,0x7830
80001108:	0000003a 	0x3a
8000110c:	6165720a 	0x6165720a
80001110:	67612064 	0x67612064
80001114:	206e6961 	addi	t6,v1,26977
80001118:	65746661 	0x65746661
8000111c:	72772072 	0x72772072
80001120:	20657469 	addi	a1,v1,29801
80001124:	37357830 	ori	s5,t9,0x7830
80001128:	0000003a 	0x3a
8000112c:	75634d0a 	jalx	858d3428 <_gp+0x58d22a0>
80001130:	6e69203a 	0x6e69203a
80001134:	69207469 	0x69207469
80001138:	00006332 	tlt	zero,zero,0x18c
8000113c:	0000000a 	movz	zero,zero,zero
80001140:	3249720a 	andi	t1,s2,0x720a
80001144:	4f433043 	c3	0x1433043
80001148:	0000204e 	0x204e
8000114c:	3249720a 	andi	t1,s2,0x720a
80001150:	42413043 	c0	0x413043
80001154:	43525354 	c0	0x1525354
80001158:	00000020 	add	zero,zero,zero
Disassembly of section .data:

80001160 <UART_BASE>:
80001160:	b0032000 	0xb0032000

80001164 <CFG_EXTAL>:
80001164:	00b71b00 	0xb71b00
	...
80001170:	20000000 	addi	zero,zero,0
	...
Disassembly of section .pdr:

00000000 <.pdr>:
   0:	80000220 	lb	zero,544(zero)
   4:	80000000 	lb	zero,0(zero)
   8:	fffffffc 	sdc3	$31,-4(ra)
	...
  14:	00000018 	mult	zero,zero
  18:	0000001d 	0x1d
  1c:	0000001f 	0x1f
  20:	8000024c 	lb	zero,588(zero)
  24:	80000000 	lb	zero,0(zero)
  28:	fffffffc 	sdc3	$31,-4(ra)
	...
  34:	00000018 	mult	zero,zero
  38:	0000001d 	0x1d
  3c:	0000001f 	0x1f
  40:	80000280 	lb	zero,640(zero)
	...
  58:	0000001d 	0x1d
  5c:	0000001f 	0x1f
  60:	80000294 	lb	zero,660(zero)
  64:	80070000 	lb	a3,0(zero)
  68:	fffffffc 	sdc3	$31,-4(ra)
	...
  74:	00000020 	add	zero,zero,zero
  78:	0000001d 	0x1d
  7c:	0000001f 	0x1f
  80:	80000300 	lb	zero,768(zero)
  84:	80010000 	lb	at,0(zero)
  88:	fffffffc 	sdc3	$31,-4(ra)
	...
  94:	00000018 	mult	zero,zero
  98:	0000001d 	0x1d
  9c:	0000001f 	0x1f
  a0:	8000033c 	lb	zero,828(zero)
  a4:	80030000 	lb	v1,0(zero)
  a8:	fffffffc 	sdc3	$31,-4(ra)
	...
  b4:	00000020 	add	zero,zero,zero
  b8:	0000001d 	0x1d
  bc:	0000001f 	0x1f
  c0:	800003bc 	lb	zero,956(zero)
  c4:	80030000 	lb	v1,0(zero)
  c8:	fffffffc 	sdc3	$31,-4(ra)
	...
  d4:	00000020 	add	zero,zero,zero
  d8:	0000001d 	0x1d
  dc:	0000001f 	0x1f
  e0:	8000048c 	lb	zero,1164(zero)
	...
  f8:	0000001d 	0x1d
  fc:	0000001f 	0x1f
 100:	800004b4 	lb	zero,1204(zero)
	...
 118:	0000001d 	0x1d
 11c:	0000001f 	0x1f
 120:	80000580 	lb	zero,1408(zero)
	...
 134:	00000008 	jr	zero
 138:	0000001d 	0x1d
 13c:	0000001f 	0x1f
 140:	800005e4 	lb	zero,1508(zero)
	...
 154:	00000008 	jr	zero
 158:	0000001d 	0x1d
 15c:	0000001f 	0x1f
 160:	80000658 	lb	zero,1624(zero)
 164:	80030000 	lb	v1,0(zero)
 168:	fffffffc 	sdc3	$31,-4(ra)
	...
 174:	00000028 	0x28
 178:	0000001d 	0x1d
 17c:	0000001f 	0x1f
 180:	800007a0 	lb	zero,1952(zero)
 184:	c0ff0000 	ll	ra,0(a3)
 188:	fffffffc 	sdc3	$31,-4(ra)
	...
 194:	00000038 	0x38
 198:	0000001d 	0x1d
 19c:	0000001f 	0x1f
 1a0:	800008d8 	lb	zero,2264(zero)
 1a4:	800f0000 	lb	t7,0(zero)
 1a8:	fffffffc 	sdc3	$31,-4(ra)
	...
 1b4:	00000028 	0x28
 1b8:	0000001d 	0x1d
 1bc:	0000001f 	0x1f
 1c0:	800009e4 	lb	zero,2532(zero)
	...
 1d8:	0000001d 	0x1d
 1dc:	0000001f 	0x1f
 1e0:	800009f0 	lb	zero,2544(zero)
	...
 1f8:	0000001d 	0x1d
 1fc:	0000001f 	0x1f
 200:	800009fc 	lb	zero,2556(zero)
 204:	c0ff0000 	ll	ra,0(a3)
 208:	fffffffc 	sdc3	$31,-4(ra)
	...
 214:	00000038 	0x38
 218:	0000001d 	0x1d
 21c:	0000001f 	0x1f
 220:	80000c58 	lb	zero,3160(zero)
 224:	80000000 	lb	zero,0(zero)
 228:	fffffffc 	sdc3	$31,-4(ra)
	...
 234:	00000020 	add	zero,zero,zero
 238:	0000001d 	0x1d
 23c:	0000001f 	0x1f
 240:	80000cdc 	lb	zero,3292(zero)
 244:	80010000 	lb	at,0(zero)
 248:	fffffffc 	sdc3	$31,-4(ra)
	...
 254:	00000020 	add	zero,zero,zero
 258:	0000001d 	0x1d
 25c:	0000001f 	0x1f
 260:	80000da0 	lb	zero,3488(zero)
 264:	807f0000 	lb	ra,0(v1)
 268:	fffffffc 	sdc3	$31,-4(ra)
	...
 274:	00000030 	tge	zero,zero
 278:	0000001d 	0x1d
 27c:	0000001f 	0x1f
Disassembly of section .debug_line:

00000000 <.debug_line>:
   0:	00000034 	teq	zero,zero
   4:	001d0002 	srl	zero,sp,0x0
   8:	01010000 	0x1010000
   c:	000d0efb 	0xd0efb
  10:	01010101 	0x1010101
  14:	01000000 	0x1000000
  18:	00010000 	sll	zero,at,0x0
  1c:	64616568 	0x64616568
  20:	0000532e 	0x532e
  24:	00000000 	nop
  28:	02040205 	0x2040205
  2c:	18038000 	0x18038000
  30:	024b8701 	0x24b8701
  34:	01010004 	sllv	zero,at,t0
  38:	0000003d 	0x3d
  3c:	001d0002 	srl	zero,sp,0x0
  40:	01010000 	0x1010000
  44:	000d0efb 	0xd0efb
  48:	01010101 	0x1010101
  4c:	01000000 	0x1000000
  50:	00010000 	sll	zero,at,0x0
  54:	6e69616d 	0x6e69616d
  58:	0000632e 	0x632e
  5c:	00000000 	nop
  60:	02200205 	0x2200205
  64:	2b038000 	slti	v1,t8,-32768
  68:	83838301 	lb	v1,-31999(gp)
  6c:	6a034986 	0x6a034986
  70:	bd848382 	cache	0x4,-31870(t4)
  74:	01001002 	0x1001002
  78:	0000b901 	0xb901
  7c:	29000200 	slti	zero,t0,512
  80:	01000000 	0x1000000
  84:	0d0efb01 	jal	43bec04 <_start-0x7bc415fc>
  88:	01010100 	0x1010100
  8c:	00000001 	movf	zero,zero,$fcc0
  90:	01000001 	movf	zero,t0,$fcc0
  94:	72617500 	0x72617500
  98:	00632e74 	teq	v1,v1,0xb9
  9c:	6a000000 	0x6a000000
  a0:	3737347a 	ori	s7,t9,0x347a
  a4:	00682e30 	tge	v1,t0,0xb8
  a8:	00000000 	nop
  ac:	80020500 	lb	v0,1280(zero)
  b0:	03800002 	0x3800002
  b4:	4f840123 	c3	0x1840123
  b8:	4b494b85 	c2	0x1494b85
  bc:	be464e49 	cache	0x6,20041(s2)
  c0:	4b3e0885 	c2	0x13e0885
  c4:	74087a03 	jalx	21e80c <_start-0x7fde19f4>
  c8:	8abb8885 	lwl	k1,-30587(s5)
  cc:	bdbd8180 	cache	0x1d,-32384(t5)
  d0:	4587ed87 	0x4587ed87
  d4:	3f08844f 	0x3f08844f
  d8:	848448f4 	lh	a0,18676(a0)
  dc:	45f7beb9 	0x45f7beb9
  e0:	08f4844d 	j	3d21134 <_start-0x7c2df0cc>
  e4:	083e083f 	j	f820fc <_start-0x7f07e104>
  e8:	083e083f 	j	f820fc <_start-0x7f07e104>
  ec:	8448f43f 	lh	t0,-3009(v0)
  f0:	03bfb984 	0x3bfb984
  f4:	03ba7fb2 	tlt	sp,k0,0x1fe
  f8:	4bf200d2 	c2	0x1f200d2
  fc:	49750886 	0x49750886
 100:	4c834983 	0x4c834983
 104:	03484c48 	0x3484c48
 108:	7503820b 	jalx	40e082c <_start-0x7bf1f9d4>
 10c:	4750524a 	c1	0x150524a
 110:	034d4750 	0x34d4750
 114:	b54a7f85 	0xb54a7f85
 118:	4d47854f 	0x4d47854f
 11c:	4d52464b 	0x4d52464b
 120:	4b844846 	c2	0x1844846
 124:	4a00f803 	c2	0xf803
 128:	4a7f8b03 	c2	0x7f8b03
 12c:	4a00f503 	c2	0xf503
 130:	0008024b 	0x8024b
 134:	00710101 	0x710101
 138:	00020000 	sll	zero,v0,0x0
 13c:	0000001f 	0x1f
 140:	0efb0101 	jal	bec0404 <_start-0x7413fdfc>
 144:	0101000d 	break	0x101
 148:	00000101 	0x101
 14c:	00000100 	sll	zero,zero,0x4
 150:	796d0001 	0x796d0001
 154:	30373734 	andi	s7,at,0x3734
 158:	0000632e 	0x632e
 15c:	00000000 	nop
 160:	05800205 	bltz	t4,978 <_start-0x7ffff888>
 164:	f2038000 	0xf2038000
 168:	4c4a0100 	0x4c4a0100
 16c:	113002bb 	beq	t1,s0,c5c <_start-0x7ffff5a4>
 170:	4a857708 	c2	0x857708
 174:	7903bb4b 	0x7903bb4b
 178:	1130024a 	beq	t1,s0,aa4 <_start-0x7ffff75c>
 17c:	877708c1 	lh	s7,2241(k1)
 180:	84484c48 	lh	t0,19528(v0)
 184:	804cf484 	lb	t4,-2940(v0)
 188:	484e4884 	0x484e4884
 18c:	024a6c03 	0x24a6c03
 190:	19031130 	0x19031130
 194:	f37608ba 	0xf37608ba
 198:	3e083d08 	0x3e083d08
 19c:	498381f4 	0x498381f4
 1a0:	f3f34c4b 	0xf3f34c4b
 1a4:	0c02b983 	jal	ae60c <_start-0x7ff51bf4>
 1a8:	4b010100 	c2	0x1010100
 1ac:	02000001 	movf	zero,s0,$fcc0
 1b0:	00002c00 	sll	a1,zero,0x10
 1b4:	fb010100 	sdc2	$1,256(t8)
 1b8:	01000d0e 	0x1000d0e
 1bc:	00010101 	0x10101
 1c0:	00010000 	sll	zero,at,0x0
 1c4:	61000100 	0x61000100
 1c8:	36387463 	ori	t8,s1,0x7463
 1cc:	632e3030 	0x632e3030
 1d0:	00000000 	nop
 1d4:	37347a6a 	ori	s4,t9,0x7a6a
 1d8:	682e3037 	0x682e3037
 1dc:	00000000 	nop
 1e0:	02050000 	0x2050000
 1e4:	800007a0 	lb	zero,1952(zero)
 1e8:	0100cb03 	0x100cb03
 1ec:	4a790351 	c2	0x790351
 1f0:	4f122802 	c3	0x1122802
 1f4:	03845145 	0x3845145
 1f8:	4d854a79 	0x4d854a79
 1fc:	834b4984 	lb	t3,18820(k0)
 200:	834a7703 	lb	t2,30467(k0)
 204:	4b3f0883 	c2	0x13f0883
 208:	834b4984 	lb	t3,18820(k0)
 20c:	034a7703 	0x34a7703
 210:	8349820c 	lb	t1,-32244(k0)
 214:	834b834c 	lb	t3,-31924(k0)
 218:	484c4884 	0x484c4884
 21c:	3402bc4d 	li	v0,0xbc4d
 220:	4749f615 	c1	0x149f615
 224:	4b834dba 	c2	0x1834dba
 228:	4b834b49 	c2	0x1834b49
 22c:	83834b49 	lb	v1,19273(gp)
 230:	03838384 	0x3838384
 234:	f3bc8209 	0xf3bc8209
 238:	4b83bb83 	c2	0x183bb83
 23c:	08700384 	j	1c00e10 <_start-0x7e3ff3f0>
 240:	848383e4 	lh	v1,-31772(a0)
 244:	00c60387 	0xc60387
 248:	ba790382 	swr	t9,898(s3)
 24c:	86ba4b03 	lh	k0,19203(s5)
 250:	4e46be46 	c3	0x46be46
 254:	af084749 	sw	t0,18249(t8)
 258:	844b4984 	lh	t3,18820(v0)
 25c:	83834b49 	lb	v1,19273(gp)
 260:	03838384 	0x3838384
 264:	f3bc821b 	0xf3bc821b
 268:	4b83bb83 	c2	0x183bb83
 26c:	025e0384 	0x25e0384
 270:	49860134 	0x49860134
 274:	49844b49 	0x49844b49
 278:	4b49844b 	c2	0x149844b
 27c:	4b498486 	c2	0x1498486
 280:	844b4984 	lh	t3,18820(v0)
 284:	8c038483 	lw	v1,-31613(zero)
 288:	4c4df27f 	0x4c4df27f
 28c:	4b4a7903 	c2	0x14a7903
 290:	b984bb83 	swr	a0,-17533(t4)
 294:	48514583 	0x48514583
 298:	79034b83 	0x79034b83
 29c:	820a034a 	lb	t2,842(s0)
 2a0:	49498549 	0x49498549
 2a4:	4b49844b 	c2	0x149844b
 2a8:	844b4984 	lh	t3,18820(v0)
 2ac:	e6034b49 	swc1	$f3,19273(s0)
 2b0:	bf4b8200 	cache	0xb,-32256(k0)
 2b4:	4d821603 	0x4d821603
 2b8:	bbbcbb86 	swr	gp,-17530(sp)
 2bc:	8383bbbc 	lb	v1,-17476(gp)
 2c0:	bbba7403 	swr	k0,29699(sp)
 2c4:	7ed203bf 	0x7ed203bf
 2c8:	4b478582 	c2	0x1478582
 2cc:	b503464f 	0xb503464f
 2d0:	c9034a01 	lwc2	$3,18945(t0)
 2d4:	ba034a7e 	swr	v1,19070(s0)
 2d8:	c7034a01 	lwc1	$f3,18945(t8)
 2dc:	4b4b4a7e 	c2	0x14b4a7e
 2e0:	4b4b4b4d 	c2	0x14b4b4d
 2e4:	4a01ae03 	c2	0x1ae03
 2e8:	494b834d 	0x494b834d
 2ec:	bb85bb83 	swr	a1,-17533(gp)
 2f0:	84bbbbbc 	lh	k1,-17476(a1)
 2f4:	00100283 	sra	zero,s0,0xa
 2f8:	008e0101 	0x8e0101
 2fc:	00020000 	sll	zero,v0,0x0
 300:	0000001c 	0x1c
 304:	0efb0101 	jal	bec0404 <_start-0x7413fdfc>
 308:	0101000d 	break	0x101
 30c:	00000101 	0x101
 310:	00000100 	sll	zero,zero,0x4
 314:	32690001 	andi	t1,s3,0x1
 318:	00632e63 	0x632e63
 31c:	00000000 	nop
 320:	a0020500 	sb	v0,1280(zero)
 324:	0380000d 	break	0x380
 328:	494b011d 	0x494b011d
 32c:	08464d4b 	j	119352c <_start-0x7ee6ccd4>
 330:	474d8575 	c1	0x14d8575
 334:	4b484b4b 	c2	0x1484b4b
 338:	4c4b474e 	0x4c4b474e
 33c:	3d08f3f3 	0x3d08f3f3
 340:	4c84484c 	0x4c84484c
 344:	4d484e80 	0x4d484e80
 348:	4c494b49 	0x4c494b49
 34c:	4b494c49 	c2	0x1494c49
 350:	4e484d49 	c3	0x484d49
 354:	4d494d80 	0x4d494d80
 358:	7d4b4b4b 	0x7d4b4b4b
 35c:	474e4650 	c1	0x14e4650
 360:	4550464f 	0x4550464f
 364:	474f484d 	c1	0x14f484d
 368:	bb854b4c 	swr	a1,19276(gp)
 36c:	83e6084c 	lb	a2,2124(ra)
 370:	4c484d49 	0x4c484d49
 374:	e508ad08 	swc1	$f8,-21240(t0)
 378:	e508e508 	swc1	$f8,-6904(t0)
 37c:	4c48ae08 	0x4c48ae08
 380:	f44a0e03 	sdc1	$f10,3587(v0)
 384:	02e308bb 	0x2e308bb
 388:	0101000c 	syscall	0x40400
Disassembly of section .debug_info:

00000000 <.debug_info>:
   0:	00000044 	0x44
   4:	00000002 	srl	zero,zero,0x0
   8:	01040000 	0x1040000
   c:	00000000 	nop
  10:	80000200 	lb	zero,512(zero)
  14:	80000214 	lb	zero,532(zero)
  18:	64616568 	0x64616568
  1c:	2f00532e 	sltiu	zero,t8,21294
  20:	2f746e6d 	sltiu	s4,k1,28269
  24:	61746164 	0x61746164
  28:	676e692f 	0x676e692f
  2c:	63696e65 	0x63696e65
  30:	726f702f 	0x726f702f
  34:	72732f6e 	0x72732f6e
  38:	4e470063 	c3	0x470063
  3c:	53412055 	beql	k0,at,8194 <_start-0x7fff806c>
  40:	312e3220 	andi	t6,t1,0x3220
  44:	80010038 	lb	at,56(zero)
  48:	00000085 	0x85
  4c:	00140002 	srl	zero,s4,0x0
  50:	01040000 	0x1040000
  54:	0000002f 	0x2f
  58:	00003e01 	0x3e01
  5c:	00005300 	sll	t2,zero,0xc
  60:	00022000 	sll	a0,v0,0x0
  64:	00027880 	sll	t7,v0,0x2
  68:	00003880 	sll	a3,zero,0x2
  6c:	06010200 	bgez	s0,870 <_start-0x7ffff990>
  70:	00000047 	0x47
  74:	45080102 	bc1f	$fcc2,480 <_start-0x7ffffd80>
  78:	02000000 	0x2000000
  7c:	00250502 	ror	zero,a1,0x14
  80:	02020000 	0x2020000
  84:	00001207 	0x1207
  88:	05040300 	0x5040300
  8c:	00746e69 	0x746e69
  90:	05070402 	0x5070402
  94:	02000000 	0x2000000
  98:	00000704 	0x704
  9c:	01040000 	0x1040000
  a0:	00000074 	teq	zero,zero,0x1
  a4:	20012c01 	addi	at,zero,11265
  a8:	4c800002 	mtc3	zero,$0,2
  ac:	10800002 	beqz	a0,b8 <_start-0x80000148>
  b0:	00000000 	nop
  b4:	04000000 	bltz	zero,b8 <_start-0x80000148>
  b8:	00006e01 	0x6e01
  bc:	011c0100 	0x11c0100
  c0:	8000024c 	lb	zero,588(zero)
  c4:	80000278 	lb	zero,632(zero)
  c8:	00000028 	0x28
  cc:	0000001f 	0x1f
  d0:	0002f500 	sll	s8,v0,0x14
  d4:	56000200 	bnezl	s0,8d8 <_start-0x7ffff928>
  d8:	04000000 	bltz	zero,dc <_start-0x80000124>
  dc:	00002f01 	0x2f01
  e0:	00a40100 	0xa40100
  e4:	00530000 	0x530000
  e8:	02800000 	0x2800000
  ec:	05788000 	0x5788000
  f0:	00798000 	0x798000
  f4:	01020000 	0x1020000
  f8:	00004706 	0x4706
  fc:	38750300 	xori	s5,v1,0x300
 100:	36080200 	ori	t0,s0,0x200
 104:	02000000 	0x2000000
 108:	00450801 	movt	at,v0,$fcc1
 10c:	36040000 	ori	a0,s0,0x0
 110:	02000000 	0x2000000
 114:	00250502 	ror	zero,a1,0x14
 118:	02020000 	0x2020000
 11c:	00001207 	0x1207
 120:	05040500 	0x5040500
 124:	00746e69 	0x746e69
 128:	32337503 	andi	s3,s1,0x7503
 12c:	62100200 	0x62100200
 130:	02000000 	0x2000000
 134:	00050704 	0x50704
 138:	04020000 	bltzl	zero,13c <_start-0x800000c4>
 13c:	00000007 	srav	zero,zero,zero
 140:	df010600 	ldc3	$1,1536(t8)
 144:	01000000 	0x1000000
 148:	00500123 	0x500123
 14c:	8e000000 	lw	zero,0(s0)
 150:	07000000 	bltz	t8,154 <_start-0x800000ac>
 154:	00000109 	0x109
 158:	008e2401 	0x8e2401
 15c:	08000000 	j	0 <_start-0x80000200>
 160:	00003d04 	0x3d04
 164:	00f60900 	0xf60900
 168:	0e010000 	jal	8040000 <_start-0x77fc0200>
 16c:	00d90001 	movt	zero,a2,$fcc6
 170:	7d070000 	0x7d070000
 174:	01000000 	0x1000000
 178:	00008e0f 	0x8e0f
 17c:	013d0700 	0x13d0700
 180:	10010000 	beq	zero,at,184 <_start-0x8000007c>
 184:	0000008e 	0x8e
 188:	00008607 	0x8607
 18c:	8e110100 	lw	s1,256(s0)
 190:	07000000 	bltz	t8,194 <_start-0x8000006c>
 194:	0000011b 	0x11b
 198:	00571201 	0x571201
 19c:	740a0000 	jalx	280000 <_start-0x7fd80200>
 1a0:	0100706d 	0x100706d
 1a4:	00005712 	0x5712
 1a8:	700b0000 	madd	zero,t3
 1ac:	80000000 	lb	zero,0(zero)
 1b0:	94800002 	lhu	zero,2(a0)
 1b4:	50800002 	beqzl	a0,1c0 <_start-0x80000040>
 1b8:	01000000 	0x1000000
 1bc:	0000f66d 	0xf66d
 1c0:	00820c00 	0x820c00
 1c4:	0d000000 	jal	4000000 <_start-0x7c000200>
 1c8:	0000b501 	0xb501
 1cc:	012e0100 	0x12e0100
 1d0:	80000294 	lb	zero,660(zero)
 1d4:	80000300 	lb	zero,768(zero)
 1d8:	00000060 	0x60
 1dc:	0000003e 	0x3e
 1e0:	0000013b 	0x13b
 1e4:	0100630e 	0x100630e
 1e8:	00002c2d 	0x2c2d
 1ec:	00005d00 	sll	t3,zero,0x14
 1f0:	01090f00 	0x1090f00
 1f4:	2f010000 	sltiu	at,t8,0
 1f8:	0000008e 	0x8e
 1fc:	00000086 	0x86
 200:	00012d07 	0x12d07
 204:	8e300100 	lw	s0,256(s1)
 208:	00000000 	nop
 20c:	0136010d 	break	0x136,0x4
 210:	3b010000 	xori	at,t8,0x0
 214:	00030001 	0x30001
 218:	00033c80 	sll	a3,v1,0x12
 21c:	00008080 	sll	s0,zero,0x2
 220:	0000a400 	sll	s4,zero,0x10
 224:	00016600 	sll	t4,at,0x18
 228:	00730e00 	0x730e00
 22c:	01663a01 	0x1663a01
 230:	00c30000 	0xc30000
 234:	08000000 	j	0 <_start-0x80000200>
 238:	00002c04 	0x2c04
 23c:	9a010d00 	lwr	at,3328(s0)
 240:	01000000 	0x1000000
 244:	033c0147 	0x33c0147
 248:	03bc8000 	0x3bc8000
 24c:	00988000 	0x988000
 250:	00ec0000 	0xec0000
 254:	01a20000 	0x1a20000
 258:	640e0000 	0x640e0000
 25c:	01007461 	0x1007461
 260:	00005746 	0x5746
 264:	00010b00 	sll	at,at,0xc
 268:	00690a00 	0x690a00
 26c:	002c4801 	movf	t1,at,$fcc3
 270:	0d000000 	jal	4000000 <_start-0x7c000200>
 274:	0000ab01 	0xab01
 278:	01580100 	0x1580100
 27c:	800003bc 	lb	zero,956(zero)
 280:	8000048c 	lb	zero,1164(zero)
 284:	000000b4 	teq	zero,zero,0x2
 288:	00000129 	0x129
 28c:	000001e5 	0x1e5
 290:	0100700e 	0x100700e
 294:	00016657 	0x16657
 298:	00014800 	sll	t1,at,0x0
 29c:	61640e00 	0x61640e00
 2a0:	57010074 	bnel	t8,at,474 <_start-0x7ffffd8c>
 2a4:	00000057 	0x57
 2a8:	0000015b 	0x15b
 2ac:	0100690a 	0x100690a
 2b0:	00002c59 	0x2c59
 2b4:	01100000 	0x1100000
 2b8:	000000cb 	0xcb
 2bc:	50017301 	beql	zero,at,1cec4 <_start-0x7ffe333c>
 2c0:	8c000000 	lw	zero,0(zero)
 2c4:	b4800004 	0xb4800004
 2c8:	d0800004 	0xd0800004
 2cc:	01000000 	0x1000000
 2d0:	00022f6d 	0x22f6d
 2d4:	01240700 	0x1240700
 2d8:	74010000 	jalx	40000 <_start-0x7ffc0200>
 2dc:	0000008e 	0x8e
 2e0:	00007011 	0x7011
 2e4:	00049800 	sll	s3,a0,0x0
 2e8:	0004a880 	sll	s5,a0,0x2
 2ec:	12760180 	beq	s3,s6,8f0 <_start-0x7ffff910>
 2f0:	80000498 	lb	zero,1176(zero)
 2f4:	8000049c 	lb	zero,1180(zero)
 2f8:	0000820c 	syscall	0x208
 2fc:	00000000 	nop
 300:	00900113 	0x900113
 304:	7c010000 	0x7c010000
 308:	0004b401 	0x4b401
 30c:	00057880 	sll	t7,a1,0x2
 310:	0000e080 	sll	gp,zero,0x2
 314:	aa6d0100 	swl	t5,256(s3)
 318:	07000002 	bltz	t8,324 <_start-0x7ffffedc>
 31c:	00000150 	0x150
 320:	008e8001 	0x8e8001
 324:	7d070000 	0x7d070000
 328:	01000000 	0x1000000
 32c:	00008e81 	0x8e81
 330:	01470700 	0x1470700
 334:	82010000 	lb	at,0(s0)
 338:	0000008e 	0x8e
 33c:	0000eb07 	0xeb07
 340:	8e830100 	lw	v1,256(s4)
 344:	14000000 	bnez	zero,348 <_start-0x7ffffeb8>
 348:	00000094 	0x94
 34c:	00000000 	nop
 350:	18159101 	0x18159101
 354:	0c000000 	jal	0 <_start-0x80000200>
 358:	000000a1 	0xa1
 35c:	0000ac0c 	syscall	0x2b0
 360:	00b70c00 	0xb70c00
 364:	c2160000 	ll	s6,0(s0)
 368:	79000000 	0x79000000
 36c:	16000001 	bnez	s0,374 <_start-0x7ffffe8c>
 370:	000000cd 	break	0x0,0x3
 374:	0000018c 	syscall	0x6
 378:	17000000 	bnez	t8,37c <_start-0x7ffffe84>
 37c:	0000002c 	0x2c
 380:	000002ba 	0x2ba
 384:	0002ba18 	0x2ba18
 388:	19000f00 	blez	t0,3f8c <_start-0x7fffc274>
 38c:	121a0704 	beq	s0,k0,1fa0 <_start-0x7fffe260>
 390:	01000001 	movf	zero,t0,$fcc0
 394:	0002cf08 	0x2cf08
 398:	03050100 	0x3050100
 39c:	80001050 	lb	zero,4176(zero)
 3a0:	0002aa1b 	0x2aa1b
 3a4:	00c11a00 	0xc11a00
 3a8:	0a010000 	j	8040000 <_start-0x77fc0200>
 3ac:	00000057 	0x57
 3b0:	60030501 	0x60030501
 3b4:	1a800011 	blez	s4,3fc <_start-0x7ffffe04>
 3b8:	000000d5 	0xd5
 3bc:	00570b01 	0x570b01
 3c0:	05010000 	bgez	t0,3c4 <_start-0x7ffffe3c>
 3c4:	00116403 	sra	t4,s1,0x10
 3c8:	01460080 	0x1460080
 3cc:	00020000 	sll	zero,v0,0x0
 3d0:	000001cc 	syscall	0x7
 3d4:	002f0104 	0x2f0104
 3d8:	5e010000 	0x5e010000
 3dc:	53000001 	beqzl	t8,3e4 <_start-0x7ffffe1c>
 3e0:	80000000 	lb	zero,0(zero)
 3e4:	a0800005 	sb	zero,5(a0)
 3e8:	36800007 	ori	zero,s4,0x7
 3ec:	02000001 	movf	zero,s0,$fcc0
 3f0:	00470601 	0x470601
 3f4:	01020000 	0x1020000
 3f8:	00004508 	0x4508
 3fc:	05020200 	bltzl	t0,c00 <_start-0x7ffff600>
 400:	00000025 	move	zero,zero
 404:	12070202 	beq	s0,a3,c10 <_start-0x7ffff5f0>
 408:	03000000 	0x3000000
 40c:	6e690504 	0x6e690504
 410:	04020074 	bltzl	zero,5e4 <_start-0x7ffffc1c>
 414:	00000507 	0x507
 418:	00480400 	0x480400
 41c:	04020000 	bltzl	zero,420 <_start-0x7ffffde0>
 420:	00000007 	srav	zero,zero,zero
 424:	6e010500 	0x6e010500
 428:	01000001 	movf	zero,t0,$fcc0
 42c:	80000173 	lb	zero,371(zero)
 430:	06000000 	bltz	s0,434 <_start-0x7ffffdcc>
 434:	00000167 	0x167
 438:	004f7201 	0x4f7201
 43c:	59070000 	0x59070000
 440:	01000001 	movf	zero,t0,$fcc0
 444:	00004f74 	teq	zero,zero,0x13d
 448:	5b080000 	0x5b080000
 44c:	80000000 	lb	zero,0(zero)
 450:	e4800005 	swc1	$f0,5(a0)
 454:	00800005 	0x800005
 458:	9f000001 	0x9f000001
 45c:	ac000001 	sw	zero,1(zero)
 460:	09000000 	j	4000000 <_start-0x7c000200>
 464:	00000069 	0x69
 468:	000001be 	0x1be
 46c:	0000740a 	0x740a
 470:	0001f400 	sll	s8,at,0x10
 474:	010b0000 	0x10b0000
 478:	00000176 	tne	zero,zero,0x5
 47c:	e4017b01 	swc1	$f1,31489(zero)
 480:	58800005 	blezl	a0,498 <_start-0x7ffffd68>
 484:	14800006 	bnez	a0,4a0 <_start-0x7ffffd60>
 488:	1f000001 	bgtz	t8,490 <_start-0x7ffffd70>
 48c:	03000002 	0x3000002
 490:	0c000001 	jal	4 <_start-0x800001fc>
 494:	00000167 	0x167
 498:	004f7a01 	0x4f7a01
 49c:	023e0000 	0x23e0000
 4a0:	5b0d0000 	0x5b0d0000
 4a4:	fc000000 	sdc3	$0,0(zero)
 4a8:	38800005 	xori	zero,a0,0x5
 4ac:	01800006 	srlv	zero,zero,t4
 4b0:	00990e7d 	0x990e7d
 4b4:	54010000 	bnel	zero,at,4b8 <_start-0x7ffffd48>
 4b8:	0005fc0f 	0x5fc0f
 4bc:	00063880 	sll	a3,a2,0x2
 4c0:	00740a80 	0x740a80
 4c4:	02740000 	0x2740000
 4c8:	00000000 	nop
 4cc:	7e011000 	0x7e011000
 4d0:	01000001 	movf	zero,t0,$fcc0
 4d4:	06580182 	0x6580182
 4d8:	07a08000 	bltz	sp,fffe04dc <_gp+0x7ffdf354>
 4dc:	01288000 	0x1288000
 4e0:	02a00000 	0x2a00000
 4e4:	5b0d0000 	0x5b0d0000
 4e8:	a8000000 	swl	zero,0(zero)
 4ec:	e4800006 	swc1	$f0,6(a0)
 4f0:	01800006 	srlv	zero,zero,t4
 4f4:	0099098c 	syscall	0x26426
 4f8:	02bf0000 	0x2bf0000
 4fc:	a80f0000 	swl	t7,0(zero)
 500:	e4800006 	swc1	$f0,6(a0)
 504:	0a800006 	j	a000018 <_start-0x760001e8>
 508:	00000074 	teq	zero,zero,0x1
 50c:	000002d2 	0x2d2
 510:	00000000 	nop
 514:	0000028b 	0x28b
 518:	02b00002 	0x2b00002
 51c:	01040000 	0x1040000
 520:	0000002f 	0x2f
 524:	0001dd01 	0x1dd01
 528:	00005300 	sll	t2,zero,0xc
 52c:	0007a000 	sll	s4,a3,0x0
 530:	000da080 	sll	s4,t5,0x2
 534:	0001ab80 	sll	s5,at,0xe
 538:	06010200 	bgez	s0,d3c <_start-0x7ffff4c4>
 53c:	00000047 	0x47
 540:	00387503 	0x387503
 544:	00360802 	ror	at,s6,0x0
 548:	01020000 	0x1020000
 54c:	00004508 	0x4508
 550:	05020200 	bltzl	t0,d54 <_start-0x7ffff4ac>
 554:	00000025 	move	zero,zero
 558:	12070202 	beq	s0,a3,d64 <_start-0x7ffff49c>
 55c:	04000000 	bltz	zero,560 <_start-0x7ffffca0>
 560:	6e690504 	0x6e690504
 564:	75030074 	jalx	40c01d0 <_start-0x7bf40030>
 568:	02003233 	tltu	s0,zero,0xc8
 56c:	00005d10 	0x5d10
 570:	07040200 	0x7040200
 574:	00000005 	0x5
 578:	00070402 	srl	zero,a3,0x10
 57c:	05000000 	bltz	t0,580 <_start-0x7ffffc80>
 580:	000001f8 	0x1f8
 584:	00012301 	0x12301
 588:	00018c06 	0x18c06
 58c:	014c0100 	0x14c0100
 590:	0000004b 	0x4b
 594:	800007a0 	lb	zero,1952(zero)
 598:	800008d8 	lb	zero,2264(zero)
 59c:	00000154 	0x154
 5a0:	000002fe 	0x2fe
 5a4:	000000c2 	srl	zero,zero,0x3
 5a8:	0001d807 	srav	k1,at,zero
 5ac:	364b0100 	ori	t3,s2,0x100
 5b0:	1d000000 	bgtz	t0,5b4 <_start-0x7ffffc4c>
 5b4:	08000003 	j	c <_start-0x800001f4>
 5b8:	00000159 	0x159
 5bc:	004b4d01 	0x4b4d01
 5c0:	033b0000 	0x33b0000
 5c4:	d1080000 	0xd1080000
 5c8:	01000001 	movf	zero,t0,$fcc0
 5cc:	00004b4d 	break	0x0,0x12d
 5d0:	00034e00 	sll	t1,v1,0x18
 5d4:	9b060000 	lwr	a2,0(t8)
 5d8:	01000001 	movf	zero,t0,$fcc0
 5dc:	004b0167 	0x4b0167
 5e0:	08d80000 	j	3600000 <_start-0x7ca00200>
 5e4:	09e48000 	j	7920000 <_start-0x786e0200>
 5e8:	017c8000 	0x17c8000
 5ec:	03610000 	0x3610000
 5f0:	01260000 	0x1260000
 5f4:	72090000 	madd	s0,t1
 5f8:	01006765 	0x1006765
 5fc:	00003666 	0x3666
 600:	00038000 	sll	s0,v1,0x0
 604:	01d80700 	0x1d80700
 608:	66010000 	0x66010000
 60c:	00000036 	tne	zero,zero
 610:	000003a9 	0x3a9
 614:	7465720a 	jalx	195c828 <_start-0x7e6a39d8>
 618:	4b680100 	c2	0x1680100
 61c:	d2000000 	0xd2000000
 620:	0b000003 	j	c00000c <_start-0x740001f4>
 624:	00727265 	0x727265
 628:	09587c01 	j	561f004 <_start-0x7a9e11fc>
 62c:	650b8000 	0x650b8000
 630:	0100646e 	0x100646e
 634:	0009647e 	0x9647e
 638:	010c0080 	0x10c0080
 63c:	000001b2 	tlt	zero,zero,0x6
 640:	e401c301 	swc1	$f1,-15615(zero)
 644:	f0800009 	0xf0800009
 648:	9c800009 	0x9c800009
 64c:	01000001 	movf	zero,t0,$fcc0
 650:	09010c6d 	j	40431b4 <_start-0x7bfbd04c>
 654:	01000002 	0x1000002
 658:	09f001bd 	j	7c006f4 <_start-0x783ffb0c>
 65c:	09fc8000 	j	7f20000 <_start-0x780e0200>
 660:	01ac8000 	0x1ac8000
 664:	6d010000 	0x6d010000
 668:	0002160d 	break	0x2,0x58
 66c:	01330100 	0x1330100
 670:	00000036 	tne	zero,zero
 674:	00017c01 	0x17c01
 678:	01d80e00 	0x1d80e00
 67c:	34010000 	li	at,0x0
 680:	00000036 	tne	zero,zero
 684:	0001590e 	0x1590e
 688:	4b350100 	c2	0x1350100
 68c:	00000000 	nop
 690:	0001c006 	srlv	t8,at,zero
 694:	01890100 	0x1890100
 698:	0000004b 	0x4b
 69c:	800009fc 	lb	zero,2556(zero)
 6a0:	80000c58 	lb	zero,3160(zero)
 6a4:	000001bc 	0x1bc
 6a8:	0000043d 	0x43d
 6ac:	0000020c 	syscall	0x8
 6b0:	67657209 	0x67657209
 6b4:	36880100 	ori	t0,s4,0x100
 6b8:	5c000000 	bgtzl	zero,6bc <_start-0x7ffffb44>
 6bc:	09000004 	j	4000010 <_start-0x7c0001f0>
 6c0:	006c6176 	tne	v1,t4,0x185
 6c4:	020c8801 	movf	s1,s0,$fcc3
 6c8:	04850000 	0x4850000
 6cc:	720a0000 	madd	s0,t2
 6d0:	01007465 	0x1007465
 6d4:	00004b8a 	0x4b8a
 6d8:	0004a400 	sll	s4,a0,0x10
 6dc:	72650b00 	0x72650b00
 6e0:	b0010072 	0xb0010072
 6e4:	80000a90 	lb	zero,2704(zero)
 6e8:	646e650b 	0x646e650b
 6ec:	9cb20100 	0x9cb20100
 6f0:	0f80000a 	jal	e000028 <_start-0x720001d8>
 6f4:	00000154 	0x154
 6f8:	80000b8c 	lb	zero,2956(zero)
 6fc:	80000c40 	lb	zero,3136(zero)
 700:	8c10ad01 	lw	s0,-21247(zero)
 704:	4080000b 	0x4080000b
 708:	1180000c 	beqz	t4,73c <_start-0x7ffffac4>
 70c:	00000165 	0x165
 710:	0000050f 	0x50f
 714:	00017011 	0x17011
 718:	00052d00 	sll	a1,a1,0x14
 71c:	00000000 	nop
 720:	00360412 	0x360412
 724:	01130000 	0x1130000
 728:	000001e7 	0x1e7
 72c:	5801c901 	0x5801c901
 730:	dc80000c 	ldc3	$0,12(a0)
 734:	e880000c 	swc2	$0,12(a0)
 738:	40000001 	mfc0	zero,$0,1
 73c:	5b000005 	blezl	t8,754 <_start-0x7ffffaac>
 740:	09000002 	j	4000008 <_start-0x7c0001f8>
 744:	c8010061 	lwc2	$1,97(zero)
 748:	00000052 	mflhxu	zero
 74c:	0000055f 	0x55f
 750:	00018708 	0x18708
 754:	2cca0100 	sltiu	t2,a2,256
 758:	7d000000 	0x7d000000
 75c:	08000005 	j	14 <_start-0x800001ec>
 760:	000001ad 	0x1ad
 764:	002cca01 	0x2cca01
 768:	05910000 	bgezal	t4,76c <_start-0x7ffffa94>
 76c:	14000000 	bnez	zero,770 <_start-0x7ffffa90>
 770:	00022501 	0x22501
 774:	01dc0100 	0x1dc0100
 778:	80000cdc 	lb	zero,3292(zero)
 77c:	80000da0 	lb	zero,3488(zero)
 780:	00000200 	sll	zero,zero,0x8
 784:	000005a5 	0x5a5
 788:	6c617615 	0x6c617615
 78c:	36dd0100 	ori	sp,s6,0x100
 790:	02000000 	0x2000000
 794:	6b167091 	0x6b167091
 798:	30000000 	andi	zero,zero,0x0
 79c:	01000000 	0x1000000
 7a0:	6c0000de 	0x6c0000de
 7a4:	02000000 	0x2000000
 7a8:	00040900 	sll	at,a0,0x4
 7ac:	2f010400 	sltiu	at,t8,1024
 7b0:	01000000 	0x1000000
 7b4:	0000023e 	0x23e
 7b8:	00000053 	mtlhx	zero
 7bc:	80000da0 	lb	zero,3488(zero)
 7c0:	80001024 	lb	zero,4132(zero)
 7c4:	000002fa 	0x2fa
 7c8:	47060102 	c1	0x1060102
 7cc:	02000000 	0x2000000
 7d0:	00450801 	movt	at,v0,$fcc1
 7d4:	02020000 	0x2020000
 7d8:	00002505 	0x2505
 7dc:	07020200 	bltzl	t8,fe0 <_start-0x7ffff220>
 7e0:	00000012 	mflo	zero
 7e4:	69050403 	0x69050403
 7e8:	0200746e 	0x200746e
 7ec:	00050704 	0x50704
 7f0:	04020000 	bltzl	zero,7f4 <_start-0x7ffffa0c>
 7f4:	00000007 	srav	zero,zero,zero
 7f8:	35010400 	ori	at,t0,0x400
 7fc:	01000002 	0x1000002
 800:	0da0011e 	jal	6800478 <_start-0x797ffd88>
 804:	10248000 	beq	at,a0,fffe0808 <_gp+0x7ffdf680>
 808:	02288000 	0x2288000
 80c:	05c40000 	0x5c40000
 810:	Address 0x0000000000000810 is out of bounds.

Disassembly of section .debug_abbrev:

00000000 <.debug_abbrev>:
   0:	10001101 	b	4408 <_start-0x7fffbdf8>
   4:	12011106 	beq	s0,at,4420 <_start-0x7fffbde0>
   8:	1b080301 	0x1b080301
   c:	13082508 	beq	t8,t0,9430 <_start-0x7fff6dd0>
  10:	00000005 	0x5
  14:	25011101 	addiu	at,t0,4353
  18:	030b130e 	0x30b130e
  1c:	110e1b0e 	beq	t0,t6,6c58 <_start-0x7fff95a8>
  20:	10011201 	beq	zero,at,4828 <_start-0x7fffb9d8>
  24:	02000006 	srlv	zero,zero,s0
  28:	0b0b0024 	j	c2c0090 <_start-0x73d40170>
  2c:	0e030b3e 	jal	80c2cf8 <_start-0x77f3d508>
  30:	24030000 	li	v1,0
  34:	3e0b0b00 	0x3e0b0b00
  38:	0008030b 	0x8030b
  3c:	002e0400 	0x2e0400
  40:	0e030c3f 	jal	80c30fc <_start-0x77f3d104>
  44:	0b3b0b3a 	j	cec2ce8 <_start-0x7313d518>
  48:	01110c27 	0x1110c27
  4c:	40810112 	0x40810112
  50:	00064006 	srlv	t0,a2,zero
  54:	11010000 	beq	t0,at,58 <_start-0x800001a8>
  58:	130e2501 	beq	t8,t6,9460 <_start-0x7fff6da0>
  5c:	1b0e030b 	0x1b0e030b
  60:	1201110e 	beq	s0,at,449c <_start-0x7fffbd64>
  64:	00061001 	0x61001
  68:	00240200 	0x240200
  6c:	0b3e0b0b 	j	cf82c2c <_start-0x7307d5d4>
  70:	00000e03 	sra	at,zero,0x18
  74:	03001603 	0x3001603
  78:	3b0b3a08 	xori	t3,t8,0x3a08
  7c:	0013490b 	0x13490b
  80:	00350400 	0x350400
  84:	00001349 	0x1349
  88:	0b002405 	j	c009014 <_start-0x73ff71ec>
  8c:	030b3e0b 	0x30b3e0b
  90:	06000008 	bltz	s0,b4 <_start-0x8000014c>
  94:	0c3f012e 	jal	fc04b8 <_start-0x7f03fd48>
  98:	0b3a0e03 	j	ce8380c <_start-0x7317c9f4>
  9c:	0c270b3b 	jal	9c2cec <_start-0x7f63d514>
  a0:	0b201349 	j	c804d24 <_start-0x737fb4dc>
  a4:	00001301 	0x1301
  a8:	03003407 	0x3003407
  ac:	3b0b3a0e 	xori	t3,t8,0x3a0e
  b0:	0013490b 	0x13490b
  b4:	000f0800 	sll	at,t7,0x0
  b8:	13490b0b 	beq	k0,t1,2ce8 <_start-0x7fffd518>
  bc:	2e090000 	sltiu	t1,s0,0
  c0:	3a0e0301 	xori	t6,s0,0x301
  c4:	270b3b0b 	addiu	t3,t8,15115
  c8:	010b200c 	syscall	0x42c80
  cc:	0a000013 	j	800004c <_start-0x780001b4>
  d0:	08030034 	j	c00d0 <_start-0x7ff40130>
  d4:	0b3b0b3a 	j	cec2ce8 <_start-0x7313d518>
  d8:	00001349 	0x1349
  dc:	31012e0b 	andi	at,t0,0x2e0b
  e0:	12011113 	beq	s0,at,4530 <_start-0x7fffbcd0>
  e4:	06408101 	bltz	s2,fffe04ec <_gp+0x7ffdf364>
  e8:	13010a40 	beq	t8,at,29ec <_start-0x7fffd814>
  ec:	340c0000 	li	t4,0x0
  f0:	00133100 	sll	a2,s3,0x4
  f4:	012e0d00 	0x12e0d00
  f8:	0e030c3f 	jal	80c30fc <_start-0x77f3d104>
  fc:	0b3b0b3a 	j	cec2ce8 <_start-0x7313d518>
 100:	01110c27 	0x1110c27
 104:	40810112 	0x40810112
 108:	01064006 	srlv	t0,a2,t0
 10c:	0e000013 	jal	800004c <_start-0x780001b4>
 110:	08030005 	j	c0014 <_start-0x7ff401ec>
 114:	0b3b0b3a 	j	cec2ce8 <_start-0x7313d518>
 118:	06021349 	bltzl	s0,4e40 <_start-0x7fffb3c0>
 11c:	340f0000 	li	t7,0x0
 120:	3a0e0300 	xori	t6,s0,0x300
 124:	490b3b0b 	bc2tl	$cc2,ed54 <_start-0x7fff14ac>
 128:	00060213 	0x60213
 12c:	012e1000 	0x12e1000
 130:	0e030c3f 	jal	80c30fc <_start-0x77f3d104>
 134:	0b3b0b3a 	j	cec2ce8 <_start-0x7313d518>
 138:	13490c27 	beq	k0,t1,31d8 <_start-0x7fffd028>
 13c:	01120111 	0x1120111
 140:	40064081 	0x40064081
 144:	0013010a 	0x13010a
 148:	011d1100 	0x11d1100
 14c:	01111331 	tgeu	t0,s1,0x4c
 150:	0b580112 	j	d600448 <_start-0x729ffdb8>
 154:	00000b59 	0xb59
 158:	11010b12 	beq	t0,at,2da4 <_start-0x7fffd45c>
 15c:	00011201 	0x11201
 160:	012e1300 	0x12e1300
 164:	0e030c3f 	jal	80c30fc <_start-0x77f3d104>
 168:	0b3b0b3a 	j	cec2ce8 <_start-0x7313d518>
 16c:	01110c27 	0x1110c27
 170:	40810112 	0x40810112
 174:	010a4006 	srlv	t0,t2,t0
 178:	14000013 	bnez	zero,1c8 <_start-0x80000038>
 17c:	1331011d 	beq	t9,s1,5f4 <_start-0x7ffffc0c>
 180:	0b580655 	j	d601954 <_start-0x729fe8ac>
 184:	00000b59 	0xb59
 188:	55010b15 	bnel	t0,at,2de0 <_start-0x7fffd420>
 18c:	16000006 	bnez	s0,1a8 <_start-0x80000058>
 190:	13310034 	beq	t9,s1,264 <_start-0x7fffff9c>
 194:	00000602 	srl	zero,zero,0x18
 198:	49010117 	bc2t	5f8 <_start-0x7ffffc08>
 19c:	00130113 	0x130113
 1a0:	00211800 	0x211800
 1a4:	0b2f1349 	j	cbc4d24 <_start-0x7343b4dc>
 1a8:	24190000 	li	t9,0
 1ac:	3e0b0b00 	0x3e0b0b00
 1b0:	1a00000b 	blez	s0,1e0 <_start-0x80000020>
 1b4:	0e030034 	jal	80c00d0 <_start-0x77f40130>
 1b8:	0b3b0b3a 	j	cec2ce8 <_start-0x7313d518>
 1bc:	0c3f1349 	jal	fc4d24 <_start-0x7f03b4dc>
 1c0:	00000a02 	srl	at,zero,0x8
 1c4:	4900261b 	bc2f	9a34 <_start-0x7fff67cc>
 1c8:	00000013 	mtlo	zero
 1cc:	25011101 	addiu	at,t0,4353
 1d0:	030b130e 	0x30b130e
 1d4:	110e1b0e 	beq	t0,t6,6e10 <_start-0x7fff93f0>
 1d8:	10011201 	beq	zero,at,49e0 <_start-0x7fffb820>
 1dc:	02000006 	srlv	zero,zero,s0
 1e0:	0b0b0024 	j	c2c0090 <_start-0x73d40170>
 1e4:	0e030b3e 	jal	80c2cf8 <_start-0x77f3d508>
 1e8:	24030000 	li	v1,0
 1ec:	3e0b0b00 	0x3e0b0b00
 1f0:	0008030b 	0x8030b
 1f4:	00350400 	0x350400
 1f8:	00001349 	0x1349
 1fc:	3f012e05 	0x3f012e05
 200:	3a0e030c 	xori	t6,s0,0x30c
 204:	270b3b0b 	addiu	t3,t8,15115
 208:	010b200c 	syscall	0x42c80
 20c:	06000013 	bltz	s0,25c <_start-0x7fffffa4>
 210:	0e030005 	jal	80c0014 <_start-0x77f401ec>
 214:	0b3b0b3a 	j	cec2ce8 <_start-0x7313d518>
 218:	00001349 	0x1349
 21c:	03003407 	0x3003407
 220:	3b0b3a0e 	xori	t3,t8,0x3a0e
 224:	0013490b 	0x13490b
 228:	012e0800 	0x12e0800
 22c:	01111331 	tgeu	t0,s1,0x4c
 230:	40810112 	0x40810112
 234:	01064006 	srlv	t0,a2,t0
 238:	09000013 	j	400004c <_start-0x7c0001b4>
 23c:	13310005 	beq	t9,s1,254 <_start-0x7fffffac>
 240:	00000602 	srl	zero,zero,0x18
 244:	3100340a 	andi	zero,t0,0x340a
 248:	00060213 	0x60213
 24c:	012e0b00 	0x12e0b00
 250:	0e030c3f 	jal	80c30fc <_start-0x77f3d104>
 254:	0b3b0b3a 	j	cec2ce8 <_start-0x7313d518>
 258:	01110c27 	0x1110c27
 25c:	40810112 	0x40810112
 260:	01064006 	srlv	t0,a2,t0
 264:	0c000013 	jal	4c <_start-0x800001b4>
 268:	0e030005 	jal	80c0014 <_start-0x77f401ec>
 26c:	0b3b0b3a 	j	cec2ce8 <_start-0x7313d518>
 270:	06021349 	bltzl	s0,4f98 <_start-0x7fffb268>
 274:	1d0d0000 	0x1d0d0000
 278:	11133101 	beq	t0,s3,c680 <_start-0x7fff3b80>
 27c:	58011201 	0x58011201
 280:	000b590b 	0xb590b
 284:	00050e00 	sll	at,a1,0x18
 288:	0a021331 	j	8084cc4 <_start-0x77f7b53c>
 28c:	0b0f0000 	j	c3c0000 <_start-0x73c40200>
 290:	12011101 	beq	s0,at,4698 <_start-0x7fffbb68>
 294:	10000001 	b	29c <_start-0x7fffff64>
 298:	0c3f012e 	jal	fc04b8 <_start-0x7f03fd48>
 29c:	0b3a0e03 	j	ce8380c <_start-0x7317c9f4>
 2a0:	0c270b3b 	jal	9c2cec <_start-0x7f63d514>
 2a4:	01120111 	0x1120111
 2a8:	40064081 	0x40064081
 2ac:	00000006 	srlv	zero,zero,zero
 2b0:	25011101 	addiu	at,t0,4353
 2b4:	030b130e 	0x30b130e
 2b8:	110e1b0e 	beq	t0,t6,6ef4 <_start-0x7fff930c>
 2bc:	10011201 	beq	zero,at,4ac4 <_start-0x7fffb73c>
 2c0:	02000006 	srlv	zero,zero,s0
 2c4:	0b0b0024 	j	c2c0090 <_start-0x73d40170>
 2c8:	0e030b3e 	jal	80c2cf8 <_start-0x77f3d508>
 2cc:	16030000 	bne	s0,v1,2d0 <_start-0x7fffff30>
 2d0:	3a080300 	xori	t0,s0,0x300
 2d4:	490b3b0b 	bc2tl	$cc2,ef04 <_start-0x7fff12fc>
 2d8:	04000013 	bltz	zero,328 <_start-0x7ffffed8>
 2dc:	0b0b0024 	j	c2c0090 <_start-0x73d40170>
 2e0:	08030b3e 	j	c2cf8 <_start-0x7ff3d508>
 2e4:	2e050000 	sltiu	a1,s0,0
 2e8:	3a0e0300 	xori	t6,s0,0x300
 2ec:	270b3b0b 	addiu	t3,t8,15115
 2f0:	000b200c 	syscall	0x2c80
 2f4:	012e0600 	0x12e0600
 2f8:	0b3a0e03 	j	ce8380c <_start-0x7317c9f4>
 2fc:	0c270b3b 	jal	9c2cec <_start-0x7f63d514>
 300:	01111349 	0x1111349
 304:	40810112 	0x40810112
 308:	01064006 	srlv	t0,a2,t0
 30c:	07000013 	bltz	t8,35c <_start-0x7ffffea4>
 310:	0e030005 	jal	80c0014 <_start-0x77f401ec>
 314:	0b3b0b3a 	j	cec2ce8 <_start-0x7313d518>
 318:	06021349 	bltzl	s0,5040 <_start-0x7fffb1c0>
 31c:	34080000 	li	t0,0x0
 320:	3a0e0300 	xori	t6,s0,0x300
 324:	490b3b0b 	bc2tl	$cc2,ef54 <_start-0x7fff12ac>
 328:	00060213 	0x60213
 32c:	00050900 	sll	at,a1,0x4
 330:	0b3a0803 	j	ce8200c <_start-0x7317e1f4>
 334:	13490b3b 	beq	k0,t1,3024 <_start-0x7fffd1dc>
 338:	00000602 	srl	zero,zero,0x18
 33c:	0300340a 	0x300340a
 340:	3b0b3a08 	xori	t3,t8,0x3a08
 344:	0213490b 	0x213490b
 348:	0b000006 	j	c000018 <_start-0x740001e8>
 34c:	0803000a 	j	c0028 <_start-0x7ff401d8>
 350:	0b3b0b3a 	j	cec2ce8 <_start-0x7313d518>
 354:	00000111 	0x111
 358:	3f002e0c 	0x3f002e0c
 35c:	3a0e030c 	xori	t6,s0,0x30c
 360:	270b3b0b 	addiu	t3,t8,15115
 364:	1201110c 	beq	s0,at,4798 <_start-0x7fffba68>
 368:	06408101 	bltz	s2,fffe0770 <_gp+0x7ffdf5e8>
 36c:	00000a40 	sll	at,zero,0x9
 370:	03012e0d 	break	0x301,0xb8
 374:	3b0b3a0e 	xori	t3,t8,0x3a0e
 378:	490c270b 	bc2f	$cc3,9fa8 <_start-0x7fff6258>
 37c:	010b2013 	0x10b2013
 380:	0e000013 	jal	800004c <_start-0x780001b4>
 384:	0e030034 	jal	80c00d0 <_start-0x77f40130>
 388:	0b3b0b3a 	j	cec2ce8 <_start-0x7313d518>
 38c:	00001349 	0x1349
 390:	31011d0f 	andi	at,t0,0x1d0f
 394:	12011113 	beq	s0,at,47e4 <_start-0x7fffba1c>
 398:	590b5801 	0x590b5801
 39c:	1000000b 	b	3cc <_start-0x7ffffe34>
 3a0:	0111010b 	0x111010b
 3a4:	00000112 	0x112
 3a8:	31003411 	andi	zero,t0,0x3411
 3ac:	00060213 	0x60213
 3b0:	000f1200 	sll	v0,t7,0x8
 3b4:	13490b0b 	beq	k0,t1,2fe4 <_start-0x7fffd21c>
 3b8:	2e130000 	sltiu	s3,s0,0
 3bc:	030c3f01 	0x30c3f01
 3c0:	3b0b3a0e 	xori	t3,t8,0x3a0e
 3c4:	110c270b 	beq	t0,t4,9ff4 <_start-0x7fff620c>
 3c8:	81011201 	lb	at,4609(t0)
 3cc:	06400640 	bltz	s2,1cd0 <_start-0x7fffe530>
 3d0:	00001301 	0x1301
 3d4:	3f012e14 	0x3f012e14
 3d8:	3a0e030c 	xori	t6,s0,0x30c
 3dc:	270b3b0b 	addiu	t3,t8,15115
 3e0:	1201110c 	beq	s0,at,4814 <_start-0x7fffb9ec>
 3e4:	06408101 	bltz	s2,fffe07ec <_gp+0x7ffdf664>
 3e8:	00000640 	sll	zero,zero,0x19
 3ec:	03003415 	0x3003415
 3f0:	3b0b3a08 	xori	t3,t8,0x3a08
 3f4:	0213490b 	0x213490b
 3f8:	1600000a 	bnez	s0,424 <_start-0x7ffffddc>
 3fc:	1331001d 	beq	t9,s1,474 <_start-0x7ffffd8c>
 400:	0b580655 	j	d601954 <_start-0x729fe8ac>
 404:	00000b59 	0xb59
 408:	01110100 	0x1110100
 40c:	0b130e25 	j	c4c3894 <_start-0x73b3c96c>
 410:	0e1b0e03 	jal	86c380c <_start-0x7793c9f4>
 414:	01120111 	0x1120111
 418:	00000610 	0x610
 41c:	0b002402 	j	c009008 <_start-0x73ff71f8>
 420:	030b3e0b 	0x30b3e0b
 424:	0300000e 	0x300000e
 428:	0b0b0024 	j	c2c0090 <_start-0x73d40170>
 42c:	08030b3e 	j	c2cf8 <_start-0x7ff3d508>
 430:	2e040000 	sltiu	a0,s0,0
 434:	030c3f00 	0x30c3f00
 438:	3b0b3a0e 	xori	t3,t8,0x3a0e
 43c:	110c270b 	beq	t0,t4,a06c <_start-0x7fff6194>
 440:	81011201 	lb	at,4609(t0)
 444:	06400640 	bltz	s2,1d48 <_start-0x7fffe4b8>
 448:	Address 0x0000000000000448 is out of bounds.

Disassembly of section .debug_aranges:

00000000 <.debug_aranges>:
   0:	0000001c 	0x1c
   4:	00000002 	srl	zero,zero,0x0
   8:	00040000 	sll	zero,a0,0x0
   c:	00000000 	nop
  10:	80000200 	lb	zero,512(zero)
  14:	00000014 	0x14
	...
  20:	0000001c 	0x1c
  24:	00480002 	0x480002
  28:	00040000 	sll	zero,a0,0x0
  2c:	00000000 	nop
  30:	80000220 	lb	zero,544(zero)
  34:	00000058 	0x58
	...
  40:	0000001c 	0x1c
  44:	00d10002 	0xd10002
  48:	00040000 	sll	zero,a0,0x0
  4c:	00000000 	nop
  50:	80000280 	lb	zero,640(zero)
  54:	000002f8 	0x2f8
	...
  60:	0000001c 	0x1c
  64:	03ca0002 	0x3ca0002
  68:	00040000 	sll	zero,a0,0x0
  6c:	00000000 	nop
  70:	80000580 	lb	zero,1408(zero)
  74:	00000220 	0x220
	...
  80:	0000001c 	0x1c
  84:	05140002 	0x5140002
  88:	00040000 	sll	zero,a0,0x0
  8c:	00000000 	nop
  90:	800007a0 	lb	zero,1952(zero)
  94:	00000600 	sll	zero,zero,0x18
	...
  a0:	0000001c 	0x1c
  a4:	07a30002 	bgezl	sp,b0 <_start-0x80000150>
  a8:	00040000 	sll	zero,a0,0x0
  ac:	00000000 	nop
  b0:	80000da0 	lb	zero,3488(zero)
  b4:	00000284 	0x284
	...
Disassembly of section .debug_frame:

00000000 <.debug_frame>:
   0:	0000000c 	syscall
   4:	ffffffff 	sdc3	$31,-1(ra)
   8:	7c010001 	0x7c010001
   c:	001d0c1f 	0x1d0c1f
  10:	00000014 	0x14
  14:	00000000 	nop
  18:	80000220 	lb	zero,544(zero)
  1c:	0000002c 	0x2c
  20:	44180e44 	0x44180e44
  24:	0000019f 	0x19f
  28:	00000014 	0x14
  2c:	00000000 	nop
  30:	8000024c 	lb	zero,588(zero)
  34:	0000002c 	0x2c
  38:	44180e44 	0x44180e44
  3c:	0000019f 	0x19f
  40:	0000000c 	syscall
  44:	ffffffff 	sdc3	$31,-1(ra)
  48:	7c010001 	0x7c010001
  4c:	001d0c1f 	0x1d0c1f
  50:	0000000c 	syscall
  54:	00000040 	ssnop
  58:	80000280 	lb	zero,640(zero)
  5c:	00000014 	0x14
  60:	0000001c 	0x1c
  64:	00000040 	ssnop
  68:	80000294 	lb	zero,660(zero)
  6c:	0000006c 	0x6c
  70:	48200e44 	0x48200e44
  74:	91480292 	lbu	t0,658(t2)
  78:	019f5003 	0x19f5003
  7c:	00000490 	0x490
  80:	00000014 	0x14
  84:	00000040 	ssnop
  88:	80000300 	lb	zero,768(zero)
  8c:	0000003c 	0x3c
  90:	48180e44 	0x48180e44
  94:	0290019f 	0x290019f
  98:	00000018 	mult	zero,zero
  9c:	00000040 	ssnop
  a0:	8000033c 	lb	zero,828(zero)
  a4:	00000080 	sll	zero,zero,0x2
  a8:	44200e44 	0x44200e44
  ac:	91580390 	lbu	t8,912(t2)
  b0:	00019f02 	srl	s3,at,0x1c
  b4:	00000018 	mult	zero,zero
  b8:	00000040 	ssnop
  bc:	800003bc 	lb	zero,956(zero)
  c0:	000000d0 	0xd0
  c4:	48200e44 	0x48200e44
  c8:	02910390 	0x2910390
  cc:	00019f4c 	syscall	0x67d
  d0:	0000000c 	syscall
  d4:	00000040 	ssnop
  d8:	8000048c 	lb	zero,1164(zero)
  dc:	00000028 	0x28
  e0:	0000000c 	syscall
  e4:	00000040 	ssnop
  e8:	800004b4 	lb	zero,1204(zero)
  ec:	000000c4 	0xc4
  f0:	0000000c 	syscall
  f4:	ffffffff 	sdc3	$31,-1(ra)
  f8:	7c010001 	0x7c010001
  fc:	001d0c1f 	0x1d0c1f
 100:	00000010 	mfhi	zero
 104:	000000f0 	tge	zero,zero,0x3
 108:	80000580 	lb	zero,1408(zero)
 10c:	00000064 	0x64
 110:	00080e44 	0x80e44
 114:	00000010 	mfhi	zero
 118:	000000f0 	tge	zero,zero,0x3
 11c:	800005e4 	lb	zero,1508(zero)
 120:	00000074 	teq	zero,zero,0x1
 124:	00080e44 	0x80e44
 128:	00000018 	mult	zero,zero
 12c:	000000f0 	tge	zero,zero,0x3
 130:	80000658 	lb	zero,1624(zero)
 134:	00000148 	0x148
 138:	4c280e48 	0x4c280e48
 13c:	02910390 	0x2910390
 140:	0000019f 	0x19f
 144:	0000000c 	syscall
 148:	ffffffff 	sdc3	$31,-1(ra)
 14c:	7c010001 	0x7c010001
 150:	001d0c1f 	0x1d0c1f
 154:	00000024 	and	zero,zero,zero
 158:	00000144 	0x144
 15c:	800007a0 	lb	zero,1952(zero)
 160:	00000138 	0x138
 164:	6c380e44 	0x6c380e44
 168:	04960595 	0x4960595
 16c:	0a90019f 	j	a40067c <_start-0x75bffb84>
 170:	08920991 	j	2482644 <_start-0x7db7dbbc>
 174:	06940793 	0x6940793
 178:	029e0397 	0x29e0397
 17c:	0000001c 	0x1c
 180:	00000144 	0x144
 184:	800008d8 	lb	zero,2264(zero)
 188:	0000010c 	syscall	0x4
 18c:	48280e44 	0x48280e44
 190:	04910590 	bgezal	a0,17d4 <_start-0x7fffea2c>
 194:	93039258 	lbu	v1,-28072(t8)
 198:	00019f02 	srl	s3,at,0x1c
 19c:	0000000c 	syscall
 1a0:	00000144 	0x144
 1a4:	800009e4 	lb	zero,2532(zero)
 1a8:	0000000c 	syscall
 1ac:	0000000c 	syscall
 1b0:	00000144 	0x144
 1b4:	800009f0 	lb	zero,2544(zero)
 1b8:	0000000c 	syscall
 1bc:	00000028 	0x28
 1c0:	00000144 	0x144
 1c4:	800009fc 	lb	zero,2556(zero)
 1c8:	0000025c 	0x25c
 1cc:	44380e44 	0x44380e44
 1d0:	90500595 	lbu	s0,1429(v0)
 1d4:	9409910a 	lhu	t1,-28406(zero)
 1d8:	04966c06 	0x4966c06
 1dc:	029e0397 	0x29e0397
 1e0:	07930892 	bgezall	gp,242c <_start-0x7fffddd4>
 1e4:	0000019f 	0x19f
 1e8:	00000014 	0x14
 1ec:	00000144 	0x144
 1f0:	80000c58 	lb	zero,3160(zero)
 1f4:	00000084 	0x84
 1f8:	40200e44 	0x40200e44
 1fc:	0000019f 	0x19f
 200:	00000014 	0x14
 204:	00000144 	0x144
 208:	80000cdc 	lb	zero,3292(zero)
 20c:	000000c4 	0xc4
 210:	68200e60 	0x68200e60
 214:	019f0290 	0x19f0290
 218:	0000000c 	syscall
 21c:	ffffffff 	sdc3	$31,-1(ra)
 220:	7c010001 	0x7c010001
 224:	001d0c1f 	0x1d0c1f
 228:	00000024 	and	zero,zero,zero
 22c:	00000218 	0x218
 230:	80000da0 	lb	zero,3488(zero)
 234:	00000284 	0x284
 238:	48300e44 	0x48300e44
 23c:	90600791 	lbu	zero,1937(v1)
 240:	93069208 	lbu	a2,-28152(t8)
 244:	95049405 	lhu	a0,-27643(t0)
 248:	9f029603 	0x9f029603
 24c:	00000001 	movf	zero,zero,$fcc0
Disassembly of section .debug_loc:

00000000 <.debug_loc>:
   0:	00000000 	nop
   4:	00000004 	sllv	zero,zero,zero
   8:	046d0001 	0x46d0001
   c:	2c000000 	sltiu	zero,zero,0
  10:	02000000 	0x2000000
  14:	00188d00 	sll	s1,t8,0x14
  18:	00000000 	nop
  1c:	2c000000 	sltiu	zero,zero,0
  20:	30000000 	andi	zero,zero,0x0
  24:	01000000 	0x1000000
  28:	00306d00 	0x306d00
  2c:	00580000 	0x580000
  30:	00020000 	sll	zero,v0,0x0
  34:	0000188d 	break	0x0,0x62
  38:	00000000 	nop
  3c:	00140000 	sll	zero,s4,0x0
  40:	00180000 	sll	zero,t8,0x0
  44:	00010000 	sll	zero,at,0x0
  48:	0000186d 	0x186d
  4c:	00008000 	sll	s0,zero,0x0
  50:	8d000200 	lw	zero,512(t0)
  54:	00000020 	add	zero,zero,zero
  58:	00000000 	nop
  5c:	00001400 	sll	v0,zero,0x10
  60:	00003000 	sll	a2,zero,0x0
  64:	54000100 	bnezl	zero,468 <_start-0x7ffffd98>
  68:	00000030 	tge	zero,zero
  6c:	00000064 	0x64
  70:	70610001 	maddu	v1,at
  74:	80000000 	lb	zero,0(zero)
  78:	01000000 	0x1000000
  7c:	00006100 	sll	t4,zero,0x4
  80:	00000000 	nop
  84:	00380000 	0x380000
  88:	00680000 	0x680000
  8c:	00010000 	sll	zero,at,0x0
  90:	00007060 	0x7060
  94:	00008000 	sll	s0,zero,0x0
  98:	60000100 	0x60000100
	...
  a4:	00000080 	sll	zero,zero,0x2
  a8:	00000084 	0x84
  ac:	846d0001 	lh	t5,1(v1)
  b0:	bc000000 	cache	0x0,0(zero)
  b4:	02000000 	0x2000000
  b8:	00188d00 	sll	s1,t8,0x14
  bc:	00000000 	nop
  c0:	80000000 	lb	zero,0(zero)
  c4:	9c000000 	0x9c000000
  c8:	01000000 	0x1000000
  cc:	009c5400 	0x9c5400
  d0:	00b40000 	0xb40000
  d4:	00010000 	sll	zero,at,0x0
  d8:	0000b460 	0xb460
  dc:	0000bc00 	sll	s7,zero,0x10
  e0:	54000100 	bnezl	zero,4e4 <_start-0x7ffffd1c>
  e4:	00000000 	nop
  e8:	00000000 	nop
  ec:	000000bc 	0xbc
  f0:	000000c0 	ehb
  f4:	c06d0001 	ll	t5,1(v1)
  f8:	3c000000 	lui	zero,0x0
  fc:	02000001 	movf	zero,s0,$fcc0
 100:	00208d00 	0x208d00
 104:	00000000 	nop
 108:	bc000000 	cache	0x0,0(zero)
 10c:	e4000000 	swc1	$f0,0(zero)
 110:	01000000 	0x1000000
 114:	00e45400 	0xe45400
 118:	01140000 	0x1140000
 11c:	00010000 	sll	zero,at,0x0
 120:	00000061 	0x61
 124:	00000000 	nop
 128:	00013c00 	sll	a3,at,0x10
 12c:	00014000 	sll	t0,at,0x0
 130:	6d000100 	0x6d000100
 134:	00000140 	sll	zero,zero,0x5
 138:	0000020c 	syscall	0x8
 13c:	208d0002 	addi	t5,a0,2
	...
 148:	0000013c 	0x13c
 14c:	0000015c 	0x15c
 150:	00540001 	movf	zero,v0,$fcc5
 154:	00000000 	nop
 158:	3c000000 	lui	zero,0x0
 15c:	5c000001 	bgtzl	zero,164 <_start-0x8000009c>
 160:	01000001 	movf	zero,t0,$fcc0
 164:	015c5500 	0x15c5500
 168:	01e40000 	0x1e40000
 16c:	00010000 	sll	zero,at,0x0
 170:	00000061 	0x61
 174:	00000000 	nop
 178:	0002c800 	sll	t9,v0,0x0
 17c:	0002cc00 	sll	t9,v0,0x10
 180:	52000100 	beqzl	s0,584 <_start-0x7ffffc7c>
 184:	00000000 	nop
 188:	00000000 	nop
 18c:	000002c4 	0x2c4
 190:	000002d8 	0x2d8
 194:	00530001 	0x530001
	...
 1a0:	04000000 	bltz	zero,1a4 <_start-0x8000005c>
 1a4:	01000000 	0x1000000
 1a8:	00046d00 	sll	t5,a0,0x14
 1ac:	00640000 	0x640000
 1b0:	00020000 	sll	zero,v0,0x0
 1b4:	0000088d 	break	0x0,0x22
	...
 1c0:	00140000 	sll	zero,s4,0x0
 1c4:	00010000 	sll	zero,at,0x0
 1c8:	00001454 	0x1454
 1cc:	00004c00 	sll	t1,zero,0x10
 1d0:	91000200 	lbu	zero,512(t0)
 1d4:	00004c00 	sll	t1,zero,0x10
 1d8:	00005c00 	sll	t3,zero,0x10
 1dc:	52000100 	beqzl	s0,5e0 <_start-0x7ffffc20>
 1e0:	0000005c 	0x5c
 1e4:	00000064 	0x64
 1e8:	00910002 	0x910002
	...
 1f4:	00000014 	0x14
 1f8:	00000030 	tge	zero,zero
 1fc:	78910002 	0x78910002
 200:	00000030 	tge	zero,zero
 204:	00000044 	0x44
 208:	44520001 	0x44520001
 20c:	64000000 	0x64000000
 210:	02000000 	0x2000000
 214:	00789100 	0x789100
 218:	00000000 	nop
 21c:	64000000 	0x64000000
 220:	68000000 	0x68000000
 224:	01000000 	0x1000000
 228:	00686d00 	0x686d00
 22c:	00d80000 	0xd80000
 230:	00020000 	sll	zero,v0,0x0
 234:	0000088d 	break	0x0,0x22
 238:	00000000 	nop
 23c:	00640000 	0x640000
 240:	00780000 	0x780000
 244:	00010000 	sll	zero,at,0x0
 248:	00007854 	0x7854
 24c:	0000c000 	sll	t8,zero,0x0
 250:	91000200 	lbu	zero,512(t0)
 254:	0000c000 	sll	t8,zero,0x0
 258:	0000d000 	sll	k0,zero,0x0
 25c:	52000100 	beqzl	s0,660 <_start-0x7ffffba0>
 260:	000000d0 	0xd0
 264:	000000d8 	0xd8
 268:	00910002 	0x910002
	...
 274:	00000078 	0x78
 278:	0000009c 	0x9c
 27c:	78910002 	0x78910002
 280:	0000009c 	0x9c
 284:	000000ac 	0xac
 288:	008d0002 	0x8d0002
 28c:	000000ac 	0xac
 290:	000000d8 	0xd8
 294:	78910002 	0x78910002
	...
 2a0:	000000d8 	0xd8
 2a4:	000000e0 	0xe0
 2a8:	e06d0001 	sc	t5,1(v1)
 2ac:	20000000 	addi	zero,zero,0
 2b0:	02000002 	0x2000002
 2b4:	00288d00 	0x288d00
 2b8:	00000000 	nop
 2bc:	24000000 	li	zero,0
 2c0:	68000001 	0x68000001
 2c4:	01000001 	movf	zero,t0,$fcc0
 2c8:	00005400 	sll	t2,zero,0x10
 2cc:	00000000 	nop
 2d0:	01280000 	0x1280000
 2d4:	01480000 	0x1480000
 2d8:	00020000 	sll	zero,v0,0x0
 2dc:	01486891 	0x1486891
 2e0:	01580000 	0x1580000
 2e4:	00020000 	sll	zero,v0,0x0
 2e8:	0158108d 	break	0x158,0x42
 2ec:	02200000 	0x2200000
 2f0:	00020000 	sll	zero,v0,0x0
 2f4:	00006891 	0x6891
	...
 300:	00040000 	sll	zero,a0,0x0
 304:	00010000 	sll	zero,at,0x0
 308:	0000046d 	0x46d
 30c:	00013800 	sll	a3,at,0x0
 310:	8d000200 	lw	zero,512(t0)
 314:	00000038 	0x38
	...
 320:	00005000 	sll	t2,zero,0x0
 324:	54000100 	bnezl	zero,728 <_start-0x7ffffad8>
 328:	00000078 	0x78
 32c:	00000078 	0x78
 330:	00540001 	movf	zero,v0,$fcc5
 334:	00000000 	nop
 338:	3c000000 	lui	zero,0x0
 33c:	f8000000 	sdc2	$0,0(zero)
 340:	01000000 	0x1000000
 344:	00006000 	sll	t4,zero,0x0
 348:	00000000 	nop
 34c:	00f80000 	0xf80000
 350:	01300000 	0x1300000
 354:	00010000 	sll	zero,at,0x0
 358:	00000060 	0x60
 35c:	00000000 	nop
 360:	00013800 	sll	a3,at,0x0
 364:	00013c00 	sll	a3,at,0x10
 368:	6d000100 	0x6d000100
 36c:	0000013c 	0x13c
 370:	00000244 	0x244
 374:	288d0002 	slti	t5,a0,2
	...
 380:	00000138 	0x138
 384:	00000148 	0x148
 388:	48540001 	0x48540001
 38c:	d0000001 	0xd0000001
 390:	01000001 	movf	zero,t0,$fcc0
 394:	021c6100 	0x21c6100
 398:	02440000 	0x2440000
 39c:	00010000 	sll	zero,at,0x0
 3a0:	00000061 	0x61
 3a4:	00000000 	nop
 3a8:	00013800 	sll	a3,at,0x0
 3ac:	00016000 	sll	t4,at,0x0
 3b0:	55000100 	bnezl	t0,7b4 <_start-0x7ffffa4c>
 3b4:	00000160 	0x160
 3b8:	00000208 	0x208
 3bc:	1c630001 	0x1c630001
 3c0:	44000002 	0x44000002
 3c4:	01000002 	0x1000002
 3c8:	00006300 	sll	t4,zero,0xc
 3cc:	00000000 	nop
 3d0:	01980000 	0x1980000
 3d4:	01a00000 	0x1a00000
 3d8:	00010000 	sll	zero,at,0x0
 3dc:	0001a062 	0x1a062
 3e0:	0001a800 	sll	s5,at,0x0
 3e4:	52000100 	beqzl	s0,7e8 <_start-0x7ffffa18>
 3e8:	000001a8 	0x1a8
 3ec:	000001b8 	0x1b8
 3f0:	b8620001 	swr	v0,1(v1)
 3f4:	c4000001 	lwc1	$f0,1(zero)
 3f8:	01000001 	movf	zero,t0,$fcc0
 3fc:	01c45200 	0x1c45200
 400:	020c0000 	0x20c0000
 404:	00010000 	sll	zero,at,0x0
 408:	00021c62 	0x21c62
 40c:	00022400 	sll	a0,v0,0x10
 410:	52000100 	beqzl	s0,814 <_start-0x7ffff9ec>
 414:	00000224 	0x224
 418:	00000234 	teq	zero,zero,0x8
 41c:	34620001 	ori	v0,v1,0x1
 420:	3c000002 	lui	zero,0x2
 424:	01000002 	0x1000002
 428:	023c5200 	0x23c5200
 42c:	02440000 	0x2440000
 430:	00010000 	sll	zero,at,0x0
 434:	00000062 	0x62
 438:	00000000 	nop
 43c:	00025c00 	sll	t3,v0,0x10
 440:	00026000 	sll	t4,v0,0x0
 444:	6d000100 	0x6d000100
 448:	00000260 	0x260
 44c:	000004b8 	0x4b8
 450:	388d0002 	xori	t5,a0,0x2
	...
 45c:	0000025c 	0x25c
 460:	0000027c 	0x27c
 464:	7c540001 	0x7c540001
 468:	08000002 	j	8 <_start-0x800001f8>
 46c:	01000003 	0x1000003
 470:	03686100 	0x3686100
 474:	03740000 	0x3740000
 478:	00010000 	sll	zero,at,0x0
 47c:	00000061 	0x61
 480:	00000000 	nop
 484:	00025c00 	sll	t3,v0,0x10
 488:	0002a800 	sll	s5,v0,0x0
 48c:	55000100 	bnezl	t0,890 <_start-0x7ffff970>
 490:	000002a8 	0x2a8
 494:	000004b8 	0x4b8
 498:	3c8d0002 	0x3c8d0002
	...
 4a4:	000002d0 	0x2d0
 4a8:	000002d8 	0x2d8
 4ac:	d8620001 	ldc2	$2,1(v1)
 4b0:	e0000002 	sc	zero,2(zero)
 4b4:	01000002 	0x1000002
 4b8:	02e05200 	0x2e05200
 4bc:	02f00000 	0x2f00000
 4c0:	00010000 	sll	zero,at,0x0
 4c4:	0002f062 	0x2f062
 4c8:	0002fc00 	sll	ra,v0,0x10
 4cc:	52000100 	beqzl	s0,8d0 <_start-0x7ffff930>
 4d0:	000002fc 	0x2fc
 4d4:	00000358 	0x358
 4d8:	68620001 	0x68620001
 4dc:	70000003 	0x70000003
 4e0:	01000003 	0x1000003
 4e4:	03705200 	0x3705200
 4e8:	03dc0000 	0x3dc0000
 4ec:	00010000 	sll	zero,at,0x0
 4f0:	0003dc62 	0x3dc62
 4f4:	0003e400 	sll	gp,v1,0x10
 4f8:	52000100 	beqzl	s0,8fc <_start-0x7ffff904>
 4fc:	000003e4 	0x3e4
 500:	000004b8 	0x4b8
 504:	00620001 	0x620001
 508:	00000000 	nop
 50c:	fc000000 	sdc3	$0,0(zero)
 510:	54000002 	bnezl	zero,51c <_start-0x7ffffce4>
 514:	01000003 	0x1000003
 518:	03e86300 	0x3e86300
 51c:	04b80000 	0x4b80000
 520:	00010000 	sll	zero,at,0x0
 524:	00000063 	0x63
 528:	00000000 	nop
 52c:	0003ec00 	sll	sp,v1,0x10
 530:	00045400 	sll	t2,a0,0x10
 534:	60000100 	0x60000100
	...
 540:	000004b8 	0x4b8
 544:	000004bc 	0x4bc
 548:	bc6d0001 	cache	0xd,1(v1)
 54c:	3c000004 	lui	zero,0x4
 550:	02000005 	0x2000005
 554:	00208d00 	0x208d00
 558:	00000000 	nop
 55c:	b8000000 	swr	zero,0(zero)
 560:	c8000004 	lwc2	$0,4(zero)
 564:	01000004 	sllv	zero,zero,t0
 568:	051c5400 	0x51c5400
 56c:	05200000 	bltz	t1,570 <_start-0x7ffffc90>
 570:	00010000 	sll	zero,at,0x0
 574:	00000054 	0x54
 578:	00000000 	nop
 57c:	00050000 	sll	zero,a1,0x0
 580:	00051c00 	sll	v1,a1,0x10
 584:	91000200 	lbu	zero,512(t0)
 588:	00000070 	tge	zero,zero,0x1
 58c:	00000000 	nop
 590:	00050800 	sll	at,a1,0x0
 594:	00051c00 	sll	v1,a1,0x10
 598:	91000200 	lbu	zero,512(t0)
 59c:	00000071 	tgeu	zero,zero,0x1
 5a0:	00000000 	nop
 5a4:	00053c00 	sll	a3,a1,0x10
 5a8:	00055c00 	sll	t3,a1,0x10
 5ac:	6d000100 	0x6d000100
 5b0:	0000055c 	0x55c
 5b4:	00000600 	sll	zero,zero,0x18
 5b8:	208d0002 	addi	t5,a0,2
	...
 5c8:	00000004 	sllv	zero,zero,zero
 5cc:	046d0001 	0x46d0001
 5d0:	84000000 	lh	zero,0(zero)
 5d4:	02000002 	0x2000002
 5d8:	00308d00 	0x308d00
 5dc:	00000000 	nop
 5e0:	Address 0x00000000000005e0 is out of bounds.

Disassembly of section .debug_pubnames:

00000000 <.debug_pubnames>:
   0:	00000025 	move	zero,zero
   4:	00480002 	0x480002
   8:	00890000 	0x890000
   c:	00560000 	0x560000
  10:	6e690000 	0x6e690000
  14:	615f7469 	0x615f7469
  18:	6f006c6c 	0x6f006c6c
  1c:	63000000 	0x63000000
  20:	6e69616d 	0x6e69616d
  24:	00000000 	nop
  28:	00009a00 	sll	s3,zero,0x8
  2c:	d1000200 	0xd1000200
  30:	f9000000 	sdc2	$0,0(t0)
  34:	d9000002 	ldc2	$0,2(t0)
  38:	73000000 	madd	t8,zero
  3c:	61697265 	0x61697265
  40:	73745f6c 	0x73745f6c
  44:	f6006374 	sdc1	$f0,25460(s0)
  48:	73000000 	madd	t8,zero
  4c:	61697265 	0x61697265
  50:	75705f6c 	jalx	5c17db0 <_start-0x7a3e8450>
  54:	3b006374 	xori	zero,t8,0x6374
  58:	70000001 	maddu	zero,zero
  5c:	746e6972 	jalx	1b9a5c8 <_start-0x7e465c38>
  60:	016c0073 	tltu	t3,t4,0x1
  64:	65730000 	0x65730000
  68:	6568646e 	0x6568646e
  6c:	00363178 	0x363178
  70:	000001a2 	0x1a2
  74:	646e6573 	0x646e6573
  78:	33786568 	andi	t8,k1,0x6568
  7c:	01e50032 	tlt	t7,a1
  80:	61750000 	0x61750000
  84:	675f7472 	0x675f7472
  88:	00637465 	0x637465
  8c:	0000022f 	0x22f
  90:	74696e69 	jalx	1a5b9a4 <_start-0x7e5a485c>
  94:	7261755f 	0x7261755f
  98:	02bd0074 	teq	s5,sp,0x1
  9c:	65480000 	0x65480000
  a0:	62615478 	0x62615478
  a4:	d400656c 	ldc1	$f0,25964(zero)
  a8:	55000002 	bnezl	t0,b4 <_start-0x8000014c>
  ac:	5f545241 	0x5f545241
  b0:	45534142 	0x45534142
  b4:	0002e600 	sll	gp,v0,0x18
  b8:	47464300 	c1	0x1464300
  bc:	5458455f 	bnel	v0,t8,1163c <_start-0x7ffeebc4>
  c0:	00004c41 	0x4c41
  c4:	33000000 	andi	zero,t8,0x0
  c8:	02000000 	0x2000000
  cc:	0003ca00 	sll	t9,v1,0x8
  d0:	00014a00 	sll	t1,at,0x8
  d4:	00008000 	sll	s0,zero,0x0
  d8:	6c656400 	0x6c656400
  dc:	73757961 	0x73757961
  e0:	0000ac00 	sll	s5,zero,0x10
  e4:	6c656400 	0x6c656400
  e8:	736d7961 	0x736d7961
  ec:	00010300 	sll	zero,at,0xc
  f0:	696e6900 	0x696e6900
  f4:	6c705f74 	0x6c705f74
  f8:	0000006c 	0x6c
  fc:	005a0000 	0x5a0000
 100:	00020000 	sll	zero,v0,0x0
 104:	00000514 	0x514
 108:	0000028f 	0x28f
 10c:	00000126 	0x126
 110:	5f67746f 	0x5f67746f
 114:	65776f70 	0x65776f70
 118:	666f5f72 	0x666f5f72
 11c:	013d0066 	0x13d0066
 120:	746f0000 	jalx	1bc0000 <_start-0x7e440200>
 124:	6f705f67 	0x6f705f67
 128:	5f726577 	0x5f726577
 12c:	12006e6f 	beqz	s0,1baec <_start-0x7ffe4714>
 130:	6c000002 	0x6c000002
 134:	705f6463 	0x705f6463
 138:	7265776f 	0x7265776f
 13c:	6e6f635f 	0x6e6f635f
 140:	00676966 	0x676966
 144:	0000025b 	0x25b
 148:	38746361 	xori	s4,v1,0x6361
 14c:	5f303036 	0x5f303036
 150:	74746573 	jalx	1d195cc <_start-0x7e2e6c34>
 154:	00676e69 	0x676e69
 158:	00000000 	nop
 15c:	0000001b 	divu	zero,zero,zero
 160:	07a30002 	bgezl	sp,16c <_start-0x80000094>
 164:	00700000 	0x700000
 168:	00560000 	0x560000
 16c:	6e690000 	0x6e690000
 170:	695f7469 	0x695f7469
 174:	00006332 	tlt	zero,zero,0x18c
 178:	Address 0x0000000000000178 is out of bounds.

Disassembly of section .debug_str:

00000000 <.debug_str>:
   0:	676e6f6c 	0x676e6f6c
   4:	736e7520 	0x736e7520
   8:	656e6769 	0x656e6769
   c:	6e692064 	0x6e692064
  10:	68730074 	0x68730074
  14:	2074726f 	addi	s4,v1,29295
  18:	69736e75 	0x69736e75
  1c:	64656e67 	0x64656e67
  20:	746e6920 	jalx	1b9a480 <_start-0x7e465d80>
  24:	6f687300 	0x6f687300
  28:	69207472 	0x69207472
  2c:	4700746e 	c1	0x100746e
  30:	4320554e 	c0	0x120554e
  34:	332e3420 	andi	t6,t9,0x3420
  38:	2d20322e 	sltiu	zero,t1,12846
  3c:	616d0067 	0x616d0067
  40:	632e6e69 	0x632e6e69
  44:	736e7500 	0x736e7500
  48:	656e6769 	0x656e6769
  4c:	68632064 	0x68632064
  50:	2f007261 	sltiu	zero,t8,29281
  54:	2f746e6d 	sltiu	s4,k1,28269
  58:	61746164 	0x61746164
  5c:	676e692f 	0x676e692f
  60:	63696e65 	0x63696e65
  64:	726f702f 	0x726f702f
  68:	72732f6e 	0x72732f6e
  6c:	6d630063 	0x6d630063
  70:	006e6961 	0x6e6961
  74:	74696e69 	jalx	1a5b9a4 <_start-0x7e5a485c>
  78:	6c6c615f 	0x6c6c615f
  7c:	72617500 	0x72617500
  80:	636c5f74 	0x636c5f74
  84:	61750072 	0x61750072
  88:	645f7472 	0x645f7472
  8c:	00726c6c 	0x726c6c
  90:	74696e69 	jalx	1a5b9a4 <_start-0x7e5a485c>
  94:	7261755f 	0x7261755f
  98:	65730074 	0x65730074
  9c:	6568646e 	0x6568646e
  a0:	00363178 	0x363178
  a4:	74726175 	jalx	1c985d4 <_start-0x7e367c2c>
  a8:	7300632e 	0x7300632e
  ac:	68646e65 	0x68646e65
  b0:	32337865 	andi	s3,s1,0x7865
  b4:	72657300 	0x72657300
  b8:	5f6c6169 	0x5f6c6169
  bc:	63747570 	0x63747570
  c0:	52415500 	beql	s2,at,154c4 <_start-0x7ffead3c>
  c4:	41425f54 	0x41425f54
  c8:	75004553 	jalx	401154c <_start-0x7bfeecb4>
  cc:	5f747261 	0x5f747261
  d0:	63746567 	0x63746567
  d4:	47464300 	c1	0x1464300
  d8:	5458455f 	bnel	v0,t8,11658 <_start-0x7ffeeba8>
  dc:	73004c41 	0x73004c41
  e0:	61697265 	0x61697265
  e4:	73745f6c 	0x73745f6c
  e8:	75006374 	jalx	4018dd0 <_start-0x7bfe7430>
  ec:	5f747261 	0x5f747261
  f0:	63726973 	0x63726973
  f4:	65730072 	0x65730072
  f8:	6c616972 	0x6c616972
  fc:	7465735f 	jalx	195cd7c <_start-0x7e6a3484>
 100:	5f677262 	0x5f677262
 104:	30373734 	andi	s7,at,0x3734
 108:	72617500 	0x72617500
 10c:	736c5f74 	0x736c5f74
 110:	65480072 	0x65480072
 114:	62615478 	0x62615478
 118:	6200656c 	0x6200656c
 11c:	5f647561 	0x5f647561
 120:	00766964 	0x766964
 124:	74726175 	jalx	1c985d4 <_start-0x7e367c2c>
 128:	7264725f 	0x7264725f
 12c:	72617500 	0x72617500
 130:	64745f74 	0x64745f74
 134:	72700072 	0x72700072
 138:	73746e69 	0x73746e69
 13c:	72617500 	0x72617500
 140:	6c645f74 	0x6c645f74
 144:	75007268 	jalx	401c9a0 <_start-0x7bfe3860>
 148:	5f747261 	0x5f747261
 14c:	00726569 	0x726569
 150:	74726175 	jalx	1c985d4 <_start-0x7e367c2c>
 154:	7263665f 	0x7263665f
 158:	6d657400 	0x6d657400
 15c:	796d0070 	0x796d0070
 160:	30373734 	andi	s7,at,0x3734
 164:	6400632e 	0x6400632e
 168:	79616c65 	0x79616c65
 16c:	65640073 	0x65640073
 170:	7579616c 	jalx	5e585b0 <_start-0x7a1a7c50>
 174:	65640073 	0x65640073
 178:	6d79616c 	0x6d79616c
 17c:	6e690073 	0x6e690073
 180:	705f7469 	0x705f7469
 184:	76006c6c 	jalx	801b1b0 <_start-0x77fe5050>
 188:	00316c61 	0x316c61
 18c:	38746361 	xori	s4,v1,0x6361
 190:	5f303036 	0x5f303036
 194:	65747962 	0x65747962
 198:	6100775f 	0x6100775f
 19c:	36387463 	ori	t8,s1,0x7463
 1a0:	775f3030 	jalx	d7cc0c0 <_start-0x72834140>
 1a4:	65746972 	0x65746972
 1a8:	6765725f 	0x6765725f
 1ac:	6c617600 	0x6c617600
 1b0:	746f0032 	jalx	1bc00c8 <_start-0x7e440138>
 1b4:	6f705f67 	0x6f705f67
 1b8:	5f726577 	0x5f726577
 1bc:	0066666f 	0x66666f
 1c0:	38746361 	xori	s4,v1,0x6361
 1c4:	5f303036 	0x5f303036
 1c8:	64616572 	0x64616572
 1cc:	6765725f 	0x6765725f
 1d0:	74657200 	jalx	195c800 <_start-0x7e6a3a00>
 1d4:	006c6176 	tne	v1,t4,0x185
 1d8:	61746164 	0x61746164
 1dc:	74636100 	jalx	18d8400 <_start-0x7e727e00>
 1e0:	30303638 	andi	s0,at,0x3638
 1e4:	6c00632e 	0x6c00632e
 1e8:	705f6463 	0x705f6463
 1ec:	7265776f 	0x7265776f
 1f0:	6e6f635f 	0x6e6f635f
 1f4:	00676966 	0x676966
 1f8:	38746361 	xori	s4,v1,0x6361
 1fc:	5f303036 	0x5f303036
 200:	5f6e6970 	0x5f6e6970
 204:	74696e69 	jalx	1a5b9a4 <_start-0x7e5a485c>
 208:	67746f00 	0x67746f00
 20c:	776f705f 	jalx	dbdc17c <_start-0x72424084>
 210:	6f5f7265 	0x6f5f7265
 214:	6361006e 	0x6361006e
 218:	30363874 	andi	s6,at,0x3874
 21c:	79625f30 	0x79625f30
 220:	725f6574 	0x725f6574
 224:	74636100 	jalx	18d8400 <_start-0x7e727e00>
 228:	30303638 	andi	s0,at,0x3638
 22c:	7465735f 	jalx	195cd7c <_start-0x7e6a3484>
 230:	676e6974 	0x676e6974
 234:	696e6900 	0x696e6900
 238:	32695f74 	andi	t1,s3,0x5f74
 23c:	32690063 	andi	t1,s3,0x63
 240:	00632e63 	0x632e63
Disassembly of section .comment:

00000000 <.comment>:
   0:	43434700 	c0	0x1434700
   4:	5328203a 	beql	t9,t0,80f0 <_start-0x7fff8110>
   8:	6372756f 	0x6372756f
   c:	20797265 	addi	t9,v1,29285
  10:	202b2b47 	addi	t3,at,11079
  14:	6574694c 	0x6574694c
  18:	332e3420 	andi	t6,t9,0x3420
  1c:	2931352d 	slti	s1,t1,13613
  20:	332e3420 	andi	t6,t9,0x3420
  24:	0000322e 	0x322e
  28:	3a434347 	xori	v1,s2,0x4347
  2c:	6f532820 	0x6f532820
  30:	65637275 	0x65637275
  34:	47207972 	c1	0x1207972
  38:	4c202b2b 	0x4c202b2b
  3c:	20657469 	addi	a1,v1,29801
  40:	2d332e34 	sltiu	s3,t1,11828
  44:	20293135 	addi	t1,at,12597
  48:	2e332e34 	sltiu	s3,s1,11828
  4c:	47000032 	c1	0x1000032
  50:	203a4343 	addi	k0,at,17219
  54:	756f5328 	jalx	5bd4ca0 <_start-0x7a42b560>
  58:	72656372 	0x72656372
  5c:	2b472079 	slti	a3,k0,8313
  60:	694c202b 	0x694c202b
  64:	34206574 	ori	zero,at,0x6574
  68:	352d332e 	ori	t5,t1,0x332e
  6c:	34202931 	ori	zero,at,0x2931
  70:	322e332e 	andi	t6,s1,0x332e
  74:	43470000 	c0	0x1470000
  78:	28203a43 	slti	zero,at,14915
  7c:	72756f53 	0x72756f53
  80:	79726563 	0x79726563
  84:	2b2b4720 	slti	t3,t9,18208
  88:	74694c20 	jalx	1a53080 <_start-0x7e5ad180>
  8c:	2e342065 	sltiu	s4,s1,8293
  90:	31352d33 	andi	s5,t1,0x2d33
  94:	2e342029 	sltiu	s4,s1,8233
  98:	00322e33 	tltu	at,s2,0xb8
  9c:	43434700 	c0	0x1434700
  a0:	5328203a 	beql	t9,t0,818c <_start-0x7fff8074>
  a4:	6372756f 	0x6372756f
  a8:	20797265 	addi	t9,v1,29285
  ac:	202b2b47 	addi	t3,at,11079
  b0:	6574694c 	0x6574694c
  b4:	332e3420 	andi	t6,t9,0x3420
  b8:	2931352d 	slti	s1,t1,13613
  bc:	332e3420 	andi	t6,t9,0x3420
  c0:	Address 0x00000000000000c0 is out of bounds.

Disassembly of section .gnu.attributes:

00000000 <.gnu.attributes>:
   0:	00000f41 	0xf41
   4:	756e6700 	jalx	5b99c00 <_start-0x7a466600>
   8:	00070100 	sll	zero,a3,0x4
   c:	01040000 	0x1040000
Disassembly of section .debug_ranges:

00000000 <.debug_ranges>:
   0:	0000029c 	0x29c
   4:	000002e4 	0x2e4
   8:	000002e8 	0x2e8
   c:	000002ec 	0x2ec
	...
  18:	0000029c 	0x29c
  1c:	000002e4 	0x2e4
  20:	000002e8 	0x2e8
  24:	000002ec 	0x2ec
	...
  30:	0000053c 	0x53c
  34:	00000558 	0x558
  38:	00000564 	0x564
  3c:	00000580 	sll	zero,zero,0x16
  40:	0000055c 	0x55c
  44:	00000560 	0x560
	...
